
LDC_FW_REV00.elf:     file format elf32-avr

Sections:
Idx Name          Size      VMA       LMA       File off  Algn
  0 .text         000034ee  00000000  00000000  00000094  2**1
                  CONTENTS, ALLOC, LOAD, READONLY, CODE
  1 .data         000001c0  00800060  000034ee  00003582  2**0
                  CONTENTS, ALLOC, LOAD, DATA
  2 .bss          00000077  00800220  00800220  00003742  2**0
                  ALLOC
  3 .stab         00002e14  00000000  00000000  00003744  2**2
                  CONTENTS, READONLY, DEBUGGING
  4 .stabstr      00000b54  00000000  00000000  00006558  2**0
                  CONTENTS, READONLY, DEBUGGING
  5 .debug_aranges 00000220  00000000  00000000  000070b0  2**3
                  CONTENTS, READONLY, DEBUGGING
  6 .debug_info   00002e69  00000000  00000000  000072d0  2**0
                  CONTENTS, READONLY, DEBUGGING
  7 .debug_abbrev 00000d7a  00000000  00000000  0000a139  2**0
                  CONTENTS, READONLY, DEBUGGING
  8 .debug_line   00001703  00000000  00000000  0000aeb3  2**0
                  CONTENTS, READONLY, DEBUGGING
  9 .debug_frame  00000bd4  00000000  00000000  0000c5b8  2**2
                  CONTENTS, READONLY, DEBUGGING
 10 .debug_str    00000a80  00000000  00000000  0000d18c  2**0
                  CONTENTS, READONLY, DEBUGGING
 11 .debug_loc    00002d8b  00000000  00000000  0000dc0c  2**0
                  CONTENTS, READONLY, DEBUGGING
 12 .debug_ranges 00000090  00000000  00000000  00010997  2**0
                  CONTENTS, READONLY, DEBUGGING

Disassembly of section .text:

00000000 <__vectors>:
       0:	0c 94 93 02 	jmp	0x526	; 0x526 <__ctors_end>
       4:	0c 94 d3 14 	jmp	0x29a6	; 0x29a6 <__vector_1>
       8:	0c 94 b0 02 	jmp	0x560	; 0x560 <__bad_interrupt>
       c:	0c 94 b0 02 	jmp	0x560	; 0x560 <__bad_interrupt>
      10:	0c 94 b0 02 	jmp	0x560	; 0x560 <__bad_interrupt>
      14:	0c 94 b0 02 	jmp	0x560	; 0x560 <__bad_interrupt>
      18:	0c 94 b0 02 	jmp	0x560	; 0x560 <__bad_interrupt>
      1c:	0c 94 b0 02 	jmp	0x560	; 0x560 <__bad_interrupt>
      20:	0c 94 b0 02 	jmp	0x560	; 0x560 <__bad_interrupt>
      24:	0c 94 b0 02 	jmp	0x560	; 0x560 <__bad_interrupt>
      28:	0c 94 b0 02 	jmp	0x560	; 0x560 <__bad_interrupt>
      2c:	0c 94 b0 02 	jmp	0x560	; 0x560 <__bad_interrupt>
      30:	0c 94 b0 02 	jmp	0x560	; 0x560 <__bad_interrupt>
      34:	0c 94 b0 02 	jmp	0x560	; 0x560 <__bad_interrupt>
      38:	0c 94 b0 02 	jmp	0x560	; 0x560 <__bad_interrupt>
      3c:	0c 94 b0 02 	jmp	0x560	; 0x560 <__bad_interrupt>
      40:	0c 94 b0 02 	jmp	0x560	; 0x560 <__bad_interrupt>
      44:	0c 94 b0 02 	jmp	0x560	; 0x560 <__bad_interrupt>
      48:	0c 94 b0 02 	jmp	0x560	; 0x560 <__bad_interrupt>
      4c:	0c 94 b0 02 	jmp	0x560	; 0x560 <__bad_interrupt>
      50:	0c 94 b0 02 	jmp	0x560	; 0x560 <__bad_interrupt>

00000054 <font19x24>:
	...
      68:	00 00 00 1c 00 00 1c 00 00 1c 00 00 1c 00 00 1c     ................
      78:	00 00 1c 00 00 1c 00 00 00 00 00 00 00 00 00 00     ................
	...
      9c:	00 1f 00 00 1f 00 00 1f 00 00 1f 00 00 00 00 00     ................
	...
      d4:	80 00 00 e0 00 00 fc 00 80 ff 00 e0 1f 00 fc 03     ................
      e4:	80 ff 00 e0 1f 00 fc 03 00 fe 00 00 1e 00 00 02     ................
	...
     108:	00 00 ff 01 c0 ff 0f f0 ff 1f f8 ff 3f 78 00 7c     ............?x.|
     118:	1c 00 70 0c 00 60 0c 00 60 0c 00 60 1c 00 70 7c     ..p..`..`..`..p|
     128:	00 3c f8 ff 3f f0 ff 1f e0 ff 0f 00 ff 01 00 00     .<..?...........
	...
     144:	00 00 40 00 00 e0 00 40 60 00 40 30 00 40 30 00     ..@....@`.@0.@0.
     154:	60 f8 ff 7f fc ff 7f fc ff 7f fc ff 7f 00 00 60     `..............`
     164:	00 00 40 00 00 40 00 00 40 00 00 00 00 00 00 00     ..@..@..@.......
	...
     17c:	00 78 00 60 78 00 78 78 00 7c 3c 00 7e 0c 00 7f     .x.`x.xx.|<.~...
     18c:	0c c0 7b 0c e0 78 0c 70 78 1c 3c 78 fc 1f 78 f8     ..{..x.px.<x..x.
     19c:	0f 7c f8 07 7e f0 01 7e 00 00 00 00 00 00 00 00     .|..~..~........
	...
     1b4:	00 00 00 78 00 3c 78 00 3c 78 00 7c 3c 00 78 1c     ...x.<x.<x.|<.x.
     1c4:	18 70 0c 18 60 0c 18 60 0c 1c 60 0c 3c 60 1c 7e     .p..`..`..`.<`.~
     1d4:	70 fc f7 3f f8 f3 3f f8 e3 1f f0 c0 07 00 00 00     p..?..?.........
	...
     1ec:	00 00 00 80 01 00 e0 01 00 f0 01 00 bc 01 00 8e     ................
     1fc:	01 80 87 01 c0 81 41 f0 80 61 f8 ff 7f fc ff 7f     ......A..a......
     20c:	fc ff 7f fc ff 7f 00 80 61 00 80 41 00 c0 01 00     ........a..A....
     21c:	c0 01 00 00 00 00 00 00 00 00 00 00 00 00 00 00     ................
     22c:	00 3c fc 1f 3c fc 3f 7c fc 1f 78 3c 18 70 3c 18     .<..<.?|..x<.p<.
     23c:	60 3c 18 60 3c 18 60 3c 38 60 3c 78 70 3c f8 3f     `<.`<.`<8`<xp<.?
     24c:	3e f0 3f 3e e0 1f 00 c0 07 00 00 00 00 00 00 00     >.?>............
	...
     264:	00 00 f8 03 00 ff 0f 80 ff 1f c0 ff 3f e0 1b 78     ............?..x
     274:	f0 18 70 38 0c 60 18 0c 60 1c 0c 60 0c 0c 70 0c     ..p8.`..`..`..p.
     284:	3c 78 0c fc 3f 00 f8 3f 00 f0 1f 00 e0 07 00 00     <x..?..?........
	...
     29c:	00 00 00 fc 00 00 fc 00 00 7c 00 00 3c 00 60 3c     .........|..<.`<
     2ac:	00 78 3c 00 7e 3c 80 3f 3c e0 0f 3c f8 03 3c 7e     .x<.~<.?<..<..<~
     2bc:	00 bc 1f 00 fc 07 00 fc 01 00 3c 00 00 0c 00 00     ..........<.....
	...
     2d8:	00 e0 83 0f f0 c7 1f f8 ef 3f f8 ff 3f 1c 7e 78     .........?..?.~x
     2e8:	0c 18 70 0c 18 60 0c 18 60 0c 18 60 0c 38 60 1c     ..p..`..`..`.8`.
     2f8:	7c 78 f8 ff 3f f8 f7 3f f0 e7 1f e0 81 07 00 00     |x..?..?........
	...
     310:	c0 0f 00 f0 1f 00 f0 3f 00 f8 7f 00 3c 78 60 1c     .......?....<x`.
     320:	60 60 0c 60 60 0c 60 70 0c 60 38 1c 30 3c 3c 30     ``.``.`p.`8.0<<0
     330:	1f f8 ff 0f f0 ff 07 e0 ff 03 80 7f 00 00 00 00     ................
     340:	00 00 00 00 00 00                                   ......

00000346 <font5x7>:
     346:	00 00 00 00 00 00 00 5f 00 00 00 07 00 07 00 14     ......._........
     356:	7f 14 7f 14 24 2a 7f 2a 12 23 13 08 64 62 36 49     ....$*.*.#..db6I
     366:	55 22 50 00 05 03 00 00 00 1c 22 41 00 00 41 22     U"P......."A..A"
     376:	1c 00 08 2a 1c 2a 08 08 08 3e 08 08 00 50 30 00     ...*.*...>...P0.
     386:	00 08 08 08 08 08 00 30 30 00 00 20 10 08 04 02     .......00.. ....
     396:	3e 51 49 45 3e 00 42 7f 40 00 42 61 51 49 46 21     >QIE>.B.@.BaQIF!
     3a6:	41 45 4b 31 18 14 12 7f 10 27 45 45 45 39 3c 4a     AEK1.....'EEE9<J
     3b6:	49 49 30 01 71 09 05 03 36 49 49 49 36 06 49 49     II0.q...6III6.II
     3c6:	29 1e 00 36 36 00 00 00 56 36 00 00 00 08 14 22     )..66...V6....."
     3d6:	41 14 14 14 14 14 41 22 14 08 00 02 01 51 09 06     A.....A".....Q..
     3e6:	32 49 79 41 3e 7e 11 11 11 7e 7f 49 49 49 36 3e     2IyA>~...~.III6>
     3f6:	41 41 41 22 7f 41 41 22 1c 7f 49 49 49 41 7f 09     AAA".AA"..IIIA..
     406:	09 01 01 3e 41 41 51 32 7f 08 08 08 7f 00 41 7f     ...>AAQ2......A.
     416:	41 00 20 40 41 3f 01 7f 08 14 22 41 7f 40 40 40     A. @A?...."A.@@@
     426:	40 7f 02 04 02 7f 7f 04 08 10 7f 3e 41 41 41 3e     @..........>AAA>
     436:	7f 09 09 09 06 3e 41 51 21 5e 7f 09 19 29 46 46     .....>AQ!^...)FF
     446:	49 49 49 31 01 01 7f 01 01 3f 40 40 40 3f 1f 20     III1.....?@@@?. 
     456:	40 20 1f 7f 20 18 20 7f 63 14 08 14 63 03 04 78     @ .. . .c...c..x
     466:	04 03 61 51 49 45 43 00 00 7f 41 41 02 04 08 10     ..aQIEC...AA....
     476:	20 41 41 7f 00 00 04 02 01 02 04 40 40 40 40 40      AA........@@@@@
     486:	00 01 02 04 00 20 54 54 54 78 7f 48 44 44 38 38     ..... TTTx.HDD88
     496:	44 44 44 20 38 44 44 48 7f 38 54 54 54 18 08 7e     DDD 8DDH.8TTT..~
     4a6:	09 01 02 08 14 54 54 3c 7f 08 04 04 78 00 44 7d     .....TT<....x.D}
     4b6:	40 00 20 40 44 3d 00 00 7f 10 28 44 00 41 7f 40     @. @D=....(D.A.@
     4c6:	00 7c 04 18 04 78 7c 08 04 04 78 38 44 44 44 38     .|...x|...x8DDD8
     4d6:	7c 14 14 14 08 08 14 14 18 7c 7c 08 04 04 08 48     |........||....H
     4e6:	54 54 54 20 04 3f 44 40 20 3c 40 40 20 7c 1c 20     TTT .?D@ <@@ |. 
     4f6:	40 20 1c 3c 40 30 40 3c 44 28 10 28 44 0c 50 50     @ .<@0@<D(.(D.PP
     506:	50 3c 44 64 54 4c 44 00 08 36 41 00 00 00 7f 00     P<DdTLD..6A.....
     516:	00 00 41 36 08 00 08 08 2a 1c 08 08 1c 2a 08 08     ..A6....*....*..

00000526 <__ctors_end>:
     526:	11 24       	eor	r1, r1
     528:	1f be       	out	0x3f, r1	; 63
     52a:	cf e5       	ldi	r28, 0x5F	; 95
     52c:	d8 e0       	ldi	r29, 0x08	; 8
     52e:	de bf       	out	0x3e, r29	; 62
     530:	cd bf       	out	0x3d, r28	; 61

00000532 <__do_copy_data>:
     532:	12 e0       	ldi	r17, 0x02	; 2
     534:	a0 e6       	ldi	r26, 0x60	; 96
     536:	b0 e0       	ldi	r27, 0x00	; 0
     538:	ee ee       	ldi	r30, 0xEE	; 238
     53a:	f4 e3       	ldi	r31, 0x34	; 52
     53c:	02 c0       	rjmp	.+4      	; 0x542 <__do_copy_data+0x10>
     53e:	05 90       	lpm	r0, Z+
     540:	0d 92       	st	X+, r0
     542:	a0 32       	cpi	r26, 0x20	; 32
     544:	b1 07       	cpc	r27, r17
     546:	d9 f7       	brne	.-10     	; 0x53e <__do_copy_data+0xc>

00000548 <__do_clear_bss>:
     548:	12 e0       	ldi	r17, 0x02	; 2
     54a:	a0 e2       	ldi	r26, 0x20	; 32
     54c:	b2 e0       	ldi	r27, 0x02	; 2
     54e:	01 c0       	rjmp	.+2      	; 0x552 <.do_clear_bss_start>

00000550 <.do_clear_bss_loop>:
     550:	1d 92       	st	X+, r1

00000552 <.do_clear_bss_start>:
     552:	a7 39       	cpi	r26, 0x97	; 151
     554:	b1 07       	cpc	r27, r17
     556:	e1 f7       	brne	.-8      	; 0x550 <.do_clear_bss_loop>
     558:	0e 94 26 14 	call	0x284c	; 0x284c <main>
     55c:	0c 94 75 1a 	jmp	0x34ea	; 0x34ea <_exit>

00000560 <__bad_interrupt>:
     560:	0c 94 00 00 	jmp	0	; 0x0 <__vectors>

00000564 <SPI_Write>:

unsigned char data[5] = {0x03, 0x00, 0x00, 0x00, 0x00};

void SPI_Write()
{	
	ADI_CS_LOW;
     564:	d8 98       	cbi	0x1b, 0	; 27
	ADI_SDI_LOW;
     566:	da 98       	cbi	0x1b, 2	; 27
	ADI_CLK_LOW;
     568:	d9 98       	cbi	0x1b, 1	; 27
     56a:	a1 e6       	ldi	r26, 0x61	; 97
     56c:	b0 e0       	ldi	r27, 0x00	; 0
/******************************************************************************/
#include "AD5421.h"		// AD5421 definitions.

unsigned char data[5] = {0x03, 0x00, 0x00, 0x00, 0x00};

void SPI_Write()
     56e:	9d 01       	movw	r18, r26
     570:	2d 5f       	subi	r18, 0xFD	; 253
     572:	3f 4f       	sbci	r19, 0xFF	; 255
{	
     574:	48 e0       	ldi	r20, 0x08	; 8
     576:	50 e0       	ldi	r21, 0x00	; 0
     578:	13 c0       	rjmp	.+38     	; 0x5a0 <SPI_Write+0x3c>
	
	for (int j = 1; j <= 3; j++)
	{	
		for (int i = 0; i <= 7; i++)
		{
			ADI_SDI_LOW;
     57a:	da 98       	cbi	0x1b, 2	; 27
			ADI_CLK_HIGH;
     57c:	d9 9a       	sbi	0x1b, 1	; 27
		
			if (data[j] & 0x80) ADI_SDI_HIGH;
     57e:	6c 91       	ld	r22, X
     580:	66 23       	and	r22, r22
     582:	14 f4       	brge	.+4      	; 0x588 <SPI_Write+0x24>
     584:	da 9a       	sbi	0x1b, 2	; 27
     586:	01 c0       	rjmp	.+2      	; 0x58a <SPI_Write+0x26>
			else ADI_SDI_LOW;
     588:	da 98       	cbi	0x1b, 2	; 27
		
			ADI_CLK_LOW;
     58a:	d9 98       	cbi	0x1b, 1	; 27
			data[j] = data[j] << 1;
     58c:	60 81       	ld	r22, Z
     58e:	66 0f       	add	r22, r22
     590:	60 83       	st	Z, r22
     592:	01 97       	sbiw	r24, 0x01	; 1
	ADI_SDI_LOW;
	ADI_CLK_LOW;
	
	for (int j = 1; j <= 3; j++)
	{	
		for (int i = 0; i <= 7; i++)
     594:	91 f7       	brne	.-28     	; 0x57a <SPI_Write+0x16>
			else ADI_SDI_LOW;
		
			ADI_CLK_LOW;
			data[j] = data[j] << 1;
		}
		ADI_SDI_LOW;	
     596:	da 98       	cbi	0x1b, 2	; 27
     598:	11 96       	adiw	r26, 0x01	; 1
{	
	ADI_CS_LOW;
	ADI_SDI_LOW;
	ADI_CLK_LOW;
	
	for (int j = 1; j <= 3; j++)
     59a:	a2 17       	cp	r26, r18
     59c:	b3 07       	cpc	r27, r19
     59e:	19 f0       	breq	.+6      	; 0x5a6 <SPI_Write+0x42>
#include "AD5421.h"		// AD5421 definitions.

unsigned char data[5] = {0x03, 0x00, 0x00, 0x00, 0x00};

void SPI_Write()
{	
     5a0:	ca 01       	movw	r24, r20
/******************************************************************************/
#include "AD5421.h"		// AD5421 definitions.

unsigned char data[5] = {0x03, 0x00, 0x00, 0x00, 0x00};

void SPI_Write()
     5a2:	fd 01       	movw	r30, r26
     5a4:	ea cf       	rjmp	.-44     	; 0x57a <SPI_Write+0x16>
			data[j] = data[j] << 1;
		}
		ADI_SDI_LOW;	
	}
	
	ADI_CS_HIGH;
     5a6:	d8 9a       	sbi	0x1b, 0	; 27
	#else
		//round up by default
		__ticks_dc = (uint32_t)(ceil(fabs(__tmp)));
	#endif

	__builtin_avr_delay_cycles(__ticks_dc);
     5a8:	8a e0       	ldi	r24, 0x0A	; 10
     5aa:	8a 95       	dec	r24
     5ac:	f1 f7       	brne	.-4      	; 0x5aa <SPI_Write+0x46>
	_delay_us(30);
	ADI_LDAC_LOW; _delay_us(5);
     5ae:	dd 98       	cbi	0x1b, 5	; 27
     5b0:	00 c0       	rjmp	.+0      	; 0x5b2 <SPI_Write+0x4e>
     5b2:	00 c0       	rjmp	.+0      	; 0x5b4 <SPI_Write+0x50>
     5b4:	00 00       	nop
	ADI_LDAC_HIGH;
     5b6:	dd 9a       	sbi	0x1b, 5	; 27
}
     5b8:	08 95       	ret

000005ba <SPI_Read>:

unsigned long SPI_Read()
{
     5ba:	20 e1       	ldi	r18, 0x10	; 16
     5bc:	30 e0       	ldi	r19, 0x00	; 0
	uint16_t ADI_ReadData = 0x0000;
     5be:	80 e0       	ldi	r24, 0x00	; 0
     5c0:	90 e0       	ldi	r25, 0x00	; 0
	
	for (int i = 0; i < 16; i++)
	{
		ADI_CLK_HIGH; _delay_us(1);
     5c2:	d9 9a       	sbi	0x1b, 1	; 27
     5c4:	00 00       	nop
		ADI_CLK_LOW;
     5c6:	d9 98       	cbi	0x1b, 1	; 27
		
		if (PINA & 0x08) ADI_ReadData |= 0x01;
     5c8:	cb 99       	sbic	0x19, 3	; 25
     5ca:	81 60       	ori	r24, 0x01	; 1
		ADI_ReadData <<= 1;
     5cc:	88 0f       	add	r24, r24
     5ce:	99 1f       	adc	r25, r25
     5d0:	21 50       	subi	r18, 0x01	; 1
     5d2:	30 40       	sbci	r19, 0x00	; 0

unsigned long SPI_Read()
{
	uint16_t ADI_ReadData = 0x0000;
	
	for (int i = 0; i < 16; i++)
     5d4:	b1 f7       	brne	.-20     	; 0x5c2 <SPI_Read+0x8>
		if (PINA & 0x08) ADI_ReadData |= 0x01;
		ADI_ReadData <<= 1;
	}
	
	return ADI_ReadData;
}
     5d6:	68 2f       	mov	r22, r24
     5d8:	79 2f       	mov	r23, r25
     5da:	80 e0       	ldi	r24, 0x00	; 0
     5dc:	90 e0       	ldi	r25, 0x00	; 0
     5de:	08 95       	ret

000005e0 <AD5421_SetRegisterValue>:
 *
 * @return  None.    
*******************************************************************************/
void AD5421_SetRegisterValue(unsigned char regAddress, unsigned short regValue)
{
	data[1] = regAddress;
     5e0:	80 93 61 00 	sts	0x0061, r24
	data[2] = (unsigned char)((regValue & 0xFF00) >> 8);
     5e4:	70 93 62 00 	sts	0x0062, r23
	data[3] = (unsigned char)((regValue & 0x00FF) >> 0);
     5e8:	60 93 63 00 	sts	0x0063, r22
	
	SPI_Write();
     5ec:	0e 94 b2 02 	call	0x564	; 0x564 <SPI_Write>
}
     5f0:	08 95       	ret

000005f2 <AD5421_GetRegisterValue>:
*******************************************************************************/
unsigned long AD5421_GetRegisterValue(unsigned char regAddress)
{
	unsigned long receivedData = 0x00;	
	
	data[1] = regAddress | AD5421_READ;
     5f2:	80 68       	ori	r24, 0x80	; 128
     5f4:	80 93 61 00 	sts	0x0061, r24
	data[2] = 0x00;
     5f8:	10 92 62 00 	sts	0x0062, r1
	data[3] = 0x00;
     5fc:	10 92 63 00 	sts	0x0063, r1
	
	ADI_CS_LOW; 
     600:	d8 98       	cbi	0x1b, 0	; 27
	SPI_Write();
     602:	0e 94 b2 02 	call	0x564	; 0x564 <SPI_Write>
	ADI_CS_HIGH;
     606:	d8 9a       	sbi	0x1b, 0	; 27
     608:	00 c0       	rjmp	.+0      	; 0x60a <AD5421_GetRegisterValue+0x18>
     60a:	00 c0       	rjmp	.+0      	; 0x60c <AD5421_GetRegisterValue+0x1a>
     60c:	00 00       	nop
	_delay_us(5);
		
	ADI_CS_LOW;
     60e:	d8 98       	cbi	0x1b, 0	; 27
	// SPI_Read(data,3);
	receivedData = SPI_Read();
     610:	0e 94 dd 02 	call	0x5ba	; 0x5ba <SPI_Read>
	ADI_CS_HIGH;
     614:	d8 9a       	sbi	0x1b, 0	; 27
	//receivedData += (data[1] << 8);
	//receivedData += (data[2] << 0);

    return receivedData;
}
     616:	08 95       	ret

00000618 <AD5421_Init>:
}

unsigned char AD5421_Init(void)
{
	unsigned char status = 0x1;
	ADI_CS_HIGH;
     618:	d8 9a       	sbi	0x1b, 0	; 27
	ADI_LDAC_HIGH;
     61a:	dd 9a       	sbi	0x1b, 5	; 27
	// setup 

	AD5421_SetRegisterValue(AD5421_REG_CTRL,
     61c:	82 e0       	ldi	r24, 0x02	; 2
     61e:	60 e8       	ldi	r22, 0x80	; 128
     620:	71 e1       	ldi	r23, 0x11	; 17
     622:	0e 94 f0 02 	call	0x5e0	; 0x5e0 <AD5421_SetRegisterValue>
/*
	AD5421_SetRegisterValue(AD5421_REG_CTRL,
		AD5421_CTRL_WATCHDOG_DISABLE
	);	
*/	
	if(AD5421_GetRegisterValue(AD5421_REG_CTRL) != 0x1180)
     626:	82 e0       	ldi	r24, 0x02	; 2
     628:	0e 94 f9 02 	call	0x5f2	; 0x5f2 <AD5421_GetRegisterValue>
     62c:	ab 01       	movw	r20, r22
     62e:	bc 01       	movw	r22, r24
	return ADI_ReadData;
}

unsigned char AD5421_Init(void)
{
	unsigned char status = 0x1;
     630:	81 e0       	ldi	r24, 0x01	; 1
     632:	40 38       	cpi	r20, 0x80	; 128
     634:	91 e1       	ldi	r25, 0x11	; 17
     636:	59 07       	cpc	r21, r25
     638:	90 e0       	ldi	r25, 0x00	; 0
     63a:	69 07       	cpc	r22, r25
     63c:	90 e0       	ldi	r25, 0x00	; 0
     63e:	79 07       	cpc	r23, r25
     640:	09 f0       	breq	.+2      	; 0x644 <AD5421_Init+0x2c>
     642:	80 e0       	ldi	r24, 0x00	; 0
    {
		status = 0x0;
	} 

	return (status);
}
     644:	08 95       	ret

00000646 <AD5421_WriteDac>:
 * @param value - The value to be vritten to the DAC register.
 *
 * @return None.
*******************************************************************************/
void AD5421_WriteDac(unsigned short value)
{
     646:	bc 01       	movw	r22, r24
	AD5421_SetRegisterValue(AD5421_REG_DAC_DATA, value);
     648:	81 e0       	ldi	r24, 0x01	; 1
     64a:	0e 94 f0 02 	call	0x5e0	; 0x5e0 <AD5421_SetRegisterValue>
}
     64e:	08 95       	ret

00000650 <AD5421_GetTemperature>:
 * @return temp - die temp in degrees C.
*******************************************************************************/
unsigned char AD5421_GetTemperature(void)
{
	unsigned char temp = 0;
	temp = (unsigned char)AD5421_GetRegisterValue(AD5421_REG_FAULT) & 0xFF;
     650:	85 e0       	ldi	r24, 0x05	; 5
     652:	0e 94 f9 02 	call	0x5f2	; 0x5f2 <AD5421_GetRegisterValue>
	temp = temp - 128;
     656:	60 58       	subi	r22, 0x80	; 128
	temp = temp * 1.771;
     658:	70 e0       	ldi	r23, 0x00	; 0
     65a:	80 e0       	ldi	r24, 0x00	; 0
     65c:	90 e0       	ldi	r25, 0x00	; 0
     65e:	0e 94 0d 16 	call	0x2c1a	; 0x2c1a <__floatsisf>
     662:	21 e2       	ldi	r18, 0x21	; 33
     664:	30 eb       	ldi	r19, 0xB0	; 176
     666:	42 ee       	ldi	r20, 0xE2	; 226
     668:	5f e3       	ldi	r21, 0x3F	; 63
     66a:	0e 94 c1 16 	call	0x2d82	; 0x2d82 <__mulsf3>
     66e:	46 2f       	mov	r20, r22
     670:	57 2f       	mov	r21, r23
     672:	68 2f       	mov	r22, r24
     674:	79 2f       	mov	r23, r25
     676:	cb 01       	movw	r24, r22
     678:	ba 01       	movw	r22, r20
     67a:	0e 94 df 15 	call	0x2bbe	; 0x2bbe <__fixunssfsi>
	temp = 125 - temp;
	
	return temp;
     67e:	8d e7       	ldi	r24, 0x7D	; 125
     680:	86 1b       	sub	r24, r22
     682:	08 95       	ret

00000684 <GLCD_Rectangle>:
//extern void GLCD_SetPixel(char x, char y, char color);

const char color = 1;

void GLCD_Rectangle(unsigned char x, unsigned char y, unsigned char b, unsigned char a)
{
     684:	6f 92       	push	r6
     686:	7f 92       	push	r7
     688:	8f 92       	push	r8
     68a:	9f 92       	push	r9
     68c:	af 92       	push	r10
     68e:	bf 92       	push	r11
     690:	cf 92       	push	r12
     692:	df 92       	push	r13
     694:	ef 92       	push	r14
     696:	ff 92       	push	r15
     698:	0f 93       	push	r16
     69a:	1f 93       	push	r17
     69c:	cf 93       	push	r28
     69e:	df 93       	push	r29
     6a0:	78 2e       	mov	r7, r24
     6a2:	66 2e       	mov	r6, r22
     6a4:	84 2e       	mov	r8, r20
     6a6:	92 2e       	mov	r9, r18
  unsigned char j; // zmienna pomocnicza
  // rysowanie linii pionowych (boki)
  for (j = 0; j < a; j++) {
     6a8:	22 23       	and	r18, r18
     6aa:	09 f1       	breq	.+66     	; 0x6ee <GLCD_Rectangle+0x6a>
     6ac:	ee 24       	eor	r14, r14
     6ae:	ff 24       	eor	r15, r15
		GLCD_SetPixel(x, y + j, color);
     6b0:	a8 2e       	mov	r10, r24
     6b2:	bb 24       	eor	r11, r11

//extern void GLCD_SetPixel(char x, char y, char color);

const char color = 1;

void GLCD_Rectangle(unsigned char x, unsigned char y, unsigned char b, unsigned char a)
     6b4:	06 2f       	mov	r16, r22
     6b6:	10 e0       	ldi	r17, 0x00	; 0
{
  unsigned char j; // zmienna pomocnicza
  // rysowanie linii pionowych (boki)
  for (j = 0; j < a; j++) {
		GLCD_SetPixel(x, y + j, color);
		GLCD_SetPixel(x + b - 1, y + j, color);
     6b8:	c5 01       	movw	r24, r10
     6ba:	84 0f       	add	r24, r20
     6bc:	91 1d       	adc	r25, r1
     6be:	6c 01       	movw	r12, r24
     6c0:	08 94       	sec
     6c2:	c1 08       	sbc	r12, r1
     6c4:	d1 08       	sbc	r13, r1

//extern void GLCD_SetPixel(char x, char y, char color);

const char color = 1;

void GLCD_Rectangle(unsigned char x, unsigned char y, unsigned char b, unsigned char a)
     6c6:	e7 01       	movw	r28, r14
     6c8:	c0 0f       	add	r28, r16
     6ca:	d1 1f       	adc	r29, r17
{
  unsigned char j; // zmienna pomocnicza
  // rysowanie linii pionowych (boki)
  for (j = 0; j < a; j++) {
		GLCD_SetPixel(x, y + j, color);
     6cc:	c5 01       	movw	r24, r10
     6ce:	be 01       	movw	r22, r28
     6d0:	41 e0       	ldi	r20, 0x01	; 1
     6d2:	50 e0       	ldi	r21, 0x00	; 0
     6d4:	0e 94 a1 06 	call	0xd42	; 0xd42 <GLCD_SetPixel>
		GLCD_SetPixel(x + b - 1, y + j, color);
     6d8:	c6 01       	movw	r24, r12
     6da:	be 01       	movw	r22, r28
     6dc:	41 e0       	ldi	r20, 0x01	; 1
     6de:	50 e0       	ldi	r21, 0x00	; 0
     6e0:	0e 94 a1 06 	call	0xd42	; 0xd42 <GLCD_SetPixel>
     6e4:	08 94       	sec
     6e6:	e1 1c       	adc	r14, r1
     6e8:	f1 1c       	adc	r15, r1

void GLCD_Rectangle(unsigned char x, unsigned char y, unsigned char b, unsigned char a)
{
  unsigned char j; // zmienna pomocnicza
  // rysowanie linii pionowych (boki)
  for (j = 0; j < a; j++) {
     6ea:	e9 14       	cp	r14, r9
     6ec:	60 f3       	brcs	.-40     	; 0x6c6 <GLCD_Rectangle+0x42>
		GLCD_SetPixel(x, y + j, color);
		GLCD_SetPixel(x + b - 1, y + j, color);
	}
  // rysowanie linii poziomych (podstawy)
  for (j = 0; j < b; j++)	{
     6ee:	88 20       	and	r8, r8
     6f0:	f9 f0       	breq	.+62     	; 0x730 <GLCD_Rectangle+0xac>
     6f2:	00 e0       	ldi	r16, 0x00	; 0
     6f4:	10 e0       	ldi	r17, 0x00	; 0

//extern void GLCD_SetPixel(char x, char y, char color);

const char color = 1;

void GLCD_Rectangle(unsigned char x, unsigned char y, unsigned char b, unsigned char a)
     6f6:	a7 2c       	mov	r10, r7
     6f8:	bb 24       	eor	r11, r11
		GLCD_SetPixel(x, y + j, color);
		GLCD_SetPixel(x + b - 1, y + j, color);
	}
  // rysowanie linii poziomych (podstawy)
  for (j = 0; j < b; j++)	{
		GLCD_SetPixel(x + j, y, color);
     6fa:	c6 2c       	mov	r12, r6
     6fc:	dd 24       	eor	r13, r13
		GLCD_SetPixel(x + j, y + a - 1, color);
     6fe:	76 01       	movw	r14, r12
     700:	e9 0c       	add	r14, r9
     702:	f1 1c       	adc	r15, r1
     704:	08 94       	sec
     706:	e1 08       	sbc	r14, r1
     708:	f1 08       	sbc	r15, r1

//extern void GLCD_SetPixel(char x, char y, char color);

const char color = 1;

void GLCD_Rectangle(unsigned char x, unsigned char y, unsigned char b, unsigned char a)
     70a:	e8 01       	movw	r28, r16
     70c:	ca 0d       	add	r28, r10
     70e:	db 1d       	adc	r29, r11
		GLCD_SetPixel(x, y + j, color);
		GLCD_SetPixel(x + b - 1, y + j, color);
	}
  // rysowanie linii poziomych (podstawy)
  for (j = 0; j < b; j++)	{
		GLCD_SetPixel(x + j, y, color);
     710:	ce 01       	movw	r24, r28
     712:	b6 01       	movw	r22, r12
     714:	41 e0       	ldi	r20, 0x01	; 1
     716:	50 e0       	ldi	r21, 0x00	; 0
     718:	0e 94 a1 06 	call	0xd42	; 0xd42 <GLCD_SetPixel>
		GLCD_SetPixel(x + j, y + a - 1, color);
     71c:	ce 01       	movw	r24, r28
     71e:	b7 01       	movw	r22, r14
     720:	41 e0       	ldi	r20, 0x01	; 1
     722:	50 e0       	ldi	r21, 0x00	; 0
     724:	0e 94 a1 06 	call	0xd42	; 0xd42 <GLCD_SetPixel>
     728:	0f 5f       	subi	r16, 0xFF	; 255
     72a:	1f 4f       	sbci	r17, 0xFF	; 255
  for (j = 0; j < a; j++) {
		GLCD_SetPixel(x, y + j, color);
		GLCD_SetPixel(x + b - 1, y + j, color);
	}
  // rysowanie linii poziomych (podstawy)
  for (j = 0; j < b; j++)	{
     72c:	08 15       	cp	r16, r8
     72e:	68 f3       	brcs	.-38     	; 0x70a <GLCD_Rectangle+0x86>
		GLCD_SetPixel(x + j, y, color);
		GLCD_SetPixel(x + j, y + a - 1, color);
	}
}
     730:	df 91       	pop	r29
     732:	cf 91       	pop	r28
     734:	1f 91       	pop	r17
     736:	0f 91       	pop	r16
     738:	ff 90       	pop	r15
     73a:	ef 90       	pop	r14
     73c:	df 90       	pop	r13
     73e:	cf 90       	pop	r12
     740:	bf 90       	pop	r11
     742:	af 90       	pop	r10
     744:	9f 90       	pop	r9
     746:	8f 90       	pop	r8
     748:	7f 90       	pop	r7
     74a:	6f 90       	pop	r6
     74c:	08 95       	ret

0000074e <GLCD_Circle>:

void GLCD_Circle(unsigned char cx, unsigned char cy ,unsigned char radius)
{
     74e:	2f 92       	push	r2
     750:	3f 92       	push	r3
     752:	4f 92       	push	r4
     754:	5f 92       	push	r5
     756:	6f 92       	push	r6
     758:	7f 92       	push	r7
     75a:	8f 92       	push	r8
     75c:	9f 92       	push	r9
     75e:	af 92       	push	r10
     760:	bf 92       	push	r11
     762:	cf 92       	push	r12
     764:	df 92       	push	r13
     766:	ef 92       	push	r14
     768:	ff 92       	push	r15
     76a:	0f 93       	push	r16
     76c:	1f 93       	push	r17
     76e:	cf 93       	push	r28
     770:	df 93       	push	r29
     772:	00 d0       	rcall	.+0      	; 0x774 <GLCD_Circle+0x26>
     774:	00 d0       	rcall	.+0      	; 0x776 <GLCD_Circle+0x28>
     776:	cd b7       	in	r28, 0x3d	; 61
     778:	de b7       	in	r29, 0x3e	; 62
int x, y, xchange, ychange, radiusError;
x = radius;
     77a:	e4 2e       	mov	r14, r20
     77c:	ff 24       	eor	r15, r15
y = 0;
xchange = 1 - 2 * radius;
     77e:	22 24       	eor	r2, r2
     780:	33 24       	eor	r3, r3
     782:	2e 18       	sub	r2, r14
     784:	3f 08       	sbc	r3, r15
     786:	22 0c       	add	r2, r2
     788:	33 1c       	adc	r3, r3
     78a:	08 94       	sec
     78c:	21 1c       	adc	r2, r1
     78e:	31 1c       	adc	r3, r1
ychange = 1;
radiusError = 0;
     790:	cc 24       	eor	r12, r12
     792:	dd 24       	eor	r13, r13
{
int x, y, xchange, ychange, radiusError;
x = radius;
y = 0;
xchange = 1 - 2 * radius;
ychange = 1;
     794:	21 e0       	ldi	r18, 0x01	; 1
     796:	30 e0       	ldi	r19, 0x00	; 0
     798:	3a 83       	std	Y+2, r19	; 0x02
     79a:	29 83       	std	Y+1, r18	; 0x01

void GLCD_Circle(unsigned char cx, unsigned char cy ,unsigned char radius)
{
int x, y, xchange, ychange, radiusError;
x = radius;
y = 0;
     79c:	00 e0       	ldi	r16, 0x00	; 0
     79e:	10 e0       	ldi	r17, 0x00	; 0
xchange = 1 - 2 * radius;
ychange = 1;
radiusError = 0;
while(x >= y)
  {
  GLCD_SetPixel(cx+x, cy+y, color); 
     7a0:	68 2e       	mov	r6, r24
     7a2:	77 24       	eor	r7, r7
     7a4:	46 2e       	mov	r4, r22
     7a6:	55 24       	eor	r5, r5
     7a8:	43 01       	movw	r8, r6
     7aa:	8e 0c       	add	r8, r14
     7ac:	9f 1c       	adc	r9, r15
		GLCD_SetPixel(x + j, y, color);
		GLCD_SetPixel(x + j, y + a - 1, color);
	}
}

void GLCD_Circle(unsigned char cx, unsigned char cy ,unsigned char radius)
     7ae:	c8 01       	movw	r24, r16
     7b0:	84 0d       	add	r24, r4
     7b2:	95 1d       	adc	r25, r5
     7b4:	9c 83       	std	Y+4, r25	; 0x04
     7b6:	8b 83       	std	Y+3, r24	; 0x03
xchange = 1 - 2 * radius;
ychange = 1;
radiusError = 0;
while(x >= y)
  {
  GLCD_SetPixel(cx+x, cy+y, color); 
     7b8:	c4 01       	movw	r24, r8
     7ba:	6b 81       	ldd	r22, Y+3	; 0x03
     7bc:	7c 81       	ldd	r23, Y+4	; 0x04
     7be:	41 e0       	ldi	r20, 0x01	; 1
     7c0:	50 e0       	ldi	r21, 0x00	; 0
     7c2:	0e 94 a1 06 	call	0xd42	; 0xd42 <GLCD_SetPixel>
  GLCD_SetPixel(cx-x, cy+y, color); 
     7c6:	53 01       	movw	r10, r6
     7c8:	ae 18       	sub	r10, r14
     7ca:	bf 08       	sbc	r11, r15
     7cc:	c5 01       	movw	r24, r10
     7ce:	6b 81       	ldd	r22, Y+3	; 0x03
     7d0:	7c 81       	ldd	r23, Y+4	; 0x04
     7d2:	41 e0       	ldi	r20, 0x01	; 1
     7d4:	50 e0       	ldi	r21, 0x00	; 0
     7d6:	0e 94 a1 06 	call	0xd42	; 0xd42 <GLCD_SetPixel>
		GLCD_SetPixel(x + j, y, color);
		GLCD_SetPixel(x + j, y + a - 1, color);
	}
}

void GLCD_Circle(unsigned char cx, unsigned char cy ,unsigned char radius)
     7da:	f2 01       	movw	r30, r4
     7dc:	e0 1b       	sub	r30, r16
     7de:	f1 0b       	sbc	r31, r17
     7e0:	fc 83       	std	Y+4, r31	; 0x04
     7e2:	eb 83       	std	Y+3, r30	; 0x03
radiusError = 0;
while(x >= y)
  {
  GLCD_SetPixel(cx+x, cy+y, color); 
  GLCD_SetPixel(cx-x, cy+y, color); 
  GLCD_SetPixel(cx-x, cy-y, color);
     7e4:	c5 01       	movw	r24, r10
     7e6:	bf 01       	movw	r22, r30
     7e8:	41 e0       	ldi	r20, 0x01	; 1
     7ea:	50 e0       	ldi	r21, 0x00	; 0
     7ec:	0e 94 a1 06 	call	0xd42	; 0xd42 <GLCD_SetPixel>
  GLCD_SetPixel(cx+x, cy-y, color); 
     7f0:	c4 01       	movw	r24, r8
     7f2:	6b 81       	ldd	r22, Y+3	; 0x03
     7f4:	7c 81       	ldd	r23, Y+4	; 0x04
     7f6:	41 e0       	ldi	r20, 0x01	; 1
     7f8:	50 e0       	ldi	r21, 0x00	; 0
     7fa:	0e 94 a1 06 	call	0xd42	; 0xd42 <GLCD_SetPixel>
		GLCD_SetPixel(x + j, y, color);
		GLCD_SetPixel(x + j, y + a - 1, color);
	}
}

void GLCD_Circle(unsigned char cx, unsigned char cy ,unsigned char radius)
     7fe:	43 01       	movw	r8, r6
     800:	80 0e       	add	r8, r16
     802:	91 1e       	adc	r9, r17
  {
  GLCD_SetPixel(cx+x, cy+y, color); 
  GLCD_SetPixel(cx-x, cy+y, color); 
  GLCD_SetPixel(cx-x, cy-y, color);
  GLCD_SetPixel(cx+x, cy-y, color); 
  GLCD_SetPixel(cx+y, cy+x, color); 
     804:	97 01       	movw	r18, r14
     806:	24 0d       	add	r18, r4
     808:	35 1d       	adc	r19, r5
     80a:	3c 83       	std	Y+4, r19	; 0x04
     80c:	2b 83       	std	Y+3, r18	; 0x03
     80e:	c4 01       	movw	r24, r8
     810:	b9 01       	movw	r22, r18
     812:	41 e0       	ldi	r20, 0x01	; 1
     814:	50 e0       	ldi	r21, 0x00	; 0
     816:	0e 94 a1 06 	call	0xd42	; 0xd42 <GLCD_SetPixel>
		GLCD_SetPixel(x + j, y, color);
		GLCD_SetPixel(x + j, y + a - 1, color);
	}
}

void GLCD_Circle(unsigned char cx, unsigned char cy ,unsigned char radius)
     81a:	53 01       	movw	r10, r6
     81c:	a0 1a       	sub	r10, r16
     81e:	b1 0a       	sbc	r11, r17
  GLCD_SetPixel(cx+x, cy+y, color); 
  GLCD_SetPixel(cx-x, cy+y, color); 
  GLCD_SetPixel(cx-x, cy-y, color);
  GLCD_SetPixel(cx+x, cy-y, color); 
  GLCD_SetPixel(cx+y, cy+x, color); 
  GLCD_SetPixel(cx-y, cy+x, color); 
     820:	c5 01       	movw	r24, r10
     822:	6b 81       	ldd	r22, Y+3	; 0x03
     824:	7c 81       	ldd	r23, Y+4	; 0x04
     826:	41 e0       	ldi	r20, 0x01	; 1
     828:	50 e0       	ldi	r21, 0x00	; 0
     82a:	0e 94 a1 06 	call	0xd42	; 0xd42 <GLCD_SetPixel>
  GLCD_SetPixel(cx-y, cy-x, color); 
     82e:	c2 01       	movw	r24, r4
     830:	8e 19       	sub	r24, r14
     832:	9f 09       	sbc	r25, r15
     834:	9c 83       	std	Y+4, r25	; 0x04
     836:	8b 83       	std	Y+3, r24	; 0x03
     838:	c5 01       	movw	r24, r10
     83a:	6b 81       	ldd	r22, Y+3	; 0x03
     83c:	7c 81       	ldd	r23, Y+4	; 0x04
     83e:	41 e0       	ldi	r20, 0x01	; 1
     840:	50 e0       	ldi	r21, 0x00	; 0
     842:	0e 94 a1 06 	call	0xd42	; 0xd42 <GLCD_SetPixel>
  GLCD_SetPixel(cx+y, cy-x, color); 
     846:	c4 01       	movw	r24, r8
     848:	6b 81       	ldd	r22, Y+3	; 0x03
     84a:	7c 81       	ldd	r23, Y+4	; 0x04
     84c:	41 e0       	ldi	r20, 0x01	; 1
     84e:	50 e0       	ldi	r21, 0x00	; 0
     850:	0e 94 a1 06 	call	0xd42	; 0xd42 <GLCD_SetPixel>
  y++;
     854:	0f 5f       	subi	r16, 0xFF	; 255
     856:	1f 4f       	sbci	r17, 0xFF	; 255
  radiusError += ychange;
     858:	e9 81       	ldd	r30, Y+1	; 0x01
     85a:	fa 81       	ldd	r31, Y+2	; 0x02
     85c:	ce 0e       	add	r12, r30
     85e:	df 1e       	adc	r13, r31
  ychange += 2;
     860:	32 96       	adiw	r30, 0x02	; 2
     862:	fa 83       	std	Y+2, r31	; 0x02
     864:	e9 83       	std	Y+1, r30	; 0x01
  if ( 2*radiusError + xchange > 0 )
     866:	c6 01       	movw	r24, r12
     868:	88 0f       	add	r24, r24
     86a:	99 1f       	adc	r25, r25
     86c:	82 0d       	add	r24, r2
     86e:	93 1d       	adc	r25, r3
     870:	18 16       	cp	r1, r24
     872:	19 06       	cpc	r1, r25
     874:	4c f4       	brge	.+18     	; 0x888 <__stack+0x29>
    {
    x--;
     876:	08 94       	sec
     878:	e1 08       	sbc	r14, r1
     87a:	f1 08       	sbc	r15, r1
	radiusError += xchange;
     87c:	c2 0c       	add	r12, r2
     87e:	d3 1c       	adc	r13, r3
	xchange += 2;
     880:	22 e0       	ldi	r18, 0x02	; 2
     882:	30 e0       	ldi	r19, 0x00	; 0
     884:	22 0e       	add	r2, r18
     886:	33 1e       	adc	r3, r19
x = radius;
y = 0;
xchange = 1 - 2 * radius;
ychange = 1;
radiusError = 0;
while(x >= y)
     888:	e0 16       	cp	r14, r16
     88a:	f1 06       	cpc	r15, r17
     88c:	0c f0       	brlt	.+2      	; 0x890 <__stack+0x31>
     88e:	8c cf       	rjmp	.-232    	; 0x7a8 <GLCD_Circle+0x5a>
    x--;
	radiusError += xchange;
	xchange += 2;
	}
  }
}
     890:	0f 90       	pop	r0
     892:	0f 90       	pop	r0
     894:	0f 90       	pop	r0
     896:	0f 90       	pop	r0
     898:	df 91       	pop	r29
     89a:	cf 91       	pop	r28
     89c:	1f 91       	pop	r17
     89e:	0f 91       	pop	r16
     8a0:	ff 90       	pop	r15
     8a2:	ef 90       	pop	r14
     8a4:	df 90       	pop	r13
     8a6:	cf 90       	pop	r12
     8a8:	bf 90       	pop	r11
     8aa:	af 90       	pop	r10
     8ac:	9f 90       	pop	r9
     8ae:	8f 90       	pop	r8
     8b0:	7f 90       	pop	r7
     8b2:	6f 90       	pop	r6
     8b4:	5f 90       	pop	r5
     8b6:	4f 90       	pop	r4
     8b8:	3f 90       	pop	r3
     8ba:	2f 90       	pop	r2
     8bc:	08 95       	ret

000008be <GLCD_Line>:

void GLCD_Line(int X1, int Y1,int X2,int Y2)
{
     8be:	2f 92       	push	r2
     8c0:	3f 92       	push	r3
     8c2:	4f 92       	push	r4
     8c4:	5f 92       	push	r5
     8c6:	6f 92       	push	r6
     8c8:	7f 92       	push	r7
     8ca:	8f 92       	push	r8
     8cc:	9f 92       	push	r9
     8ce:	af 92       	push	r10
     8d0:	bf 92       	push	r11
     8d2:	cf 92       	push	r12
     8d4:	df 92       	push	r13
     8d6:	ef 92       	push	r14
     8d8:	ff 92       	push	r15
     8da:	0f 93       	push	r16
     8dc:	1f 93       	push	r17
     8de:	cf 93       	push	r28
     8e0:	df 93       	push	r29
     8e2:	00 d0       	rcall	.+0      	; 0x8e4 <GLCD_Line+0x26>
     8e4:	00 d0       	rcall	.+0      	; 0x8e6 <GLCD_Line+0x28>
     8e6:	cd b7       	in	r28, 0x3d	; 61
     8e8:	de b7       	in	r29, 0x3e	; 62
     8ea:	9c 83       	std	Y+4, r25	; 0x04
     8ec:	8b 83       	std	Y+3, r24	; 0x03
     8ee:	8b 01       	movw	r16, r22
     8f0:	5a 01       	movw	r10, r20
     8f2:	49 01       	movw	r8, r18
int CurrentX, CurrentY, Xinc, Yinc, 
    Dx, Dy, TwoDx, TwoDy, 
	TwoDxAccumulatedError, TwoDyAccumulatedError;

Dx = (X2-X1); // obliczenie sk쓰dowej poziomej
     8f4:	7a 01       	movw	r14, r20
     8f6:	e8 1a       	sub	r14, r24
     8f8:	f9 0a       	sbc	r15, r25
Dy = (Y2-Y1); // obliczenie sk쓰dowej pionowej
     8fa:	69 01       	movw	r12, r18
     8fc:	c6 1a       	sub	r12, r22
     8fe:	d7 0a       	sbc	r13, r23

TwoDx = Dx + Dx; // podwojona sk쓰dowa pozioma
     900:	27 01       	movw	r4, r14
     902:	44 0c       	add	r4, r4
     904:	55 1c       	adc	r5, r5
TwoDy = Dy + Dy; // podwojona sk쓰dowa pionowa
     906:	36 01       	movw	r6, r12
     908:	66 0c       	add	r6, r6
     90a:	77 1c       	adc	r7, r7
CurrentY = Y1; // oraz Y1

Xinc = 1; // ustalamy krok zwi?szania pozycji w poziomie 
Yinc = 1; // ustalamy krok zwi?szania pozycji w pionie

if(Dx < 0) // jesli sk쓰dowa pozioma jest ujemna 
     90c:	ff 20       	and	r15, r15
     90e:	6c f4       	brge	.+26     	; 0x92a <GLCD_Line+0x6c>
  {
  Xinc = -1; // to b?ziemy si?"cofa? (krok ujemny)
  Dx = -Dx;  // zmieniamy znak sk쓰dowej na dodatni
     910:	f0 94       	com	r15
     912:	e1 94       	neg	r14
     914:	f1 08       	sbc	r15, r1
     916:	f3 94       	inc	r15
  TwoDx = -TwoDx; // jak r?nie?podwojonej sk쓰dowej
     918:	50 94       	com	r5
     91a:	41 94       	neg	r4
     91c:	51 08       	sbc	r5, r1
     91e:	53 94       	inc	r5
Xinc = 1; // ustalamy krok zwi?szania pozycji w poziomie 
Yinc = 1; // ustalamy krok zwi?szania pozycji w pionie

if(Dx < 0) // jesli sk쓰dowa pozioma jest ujemna 
  {
  Xinc = -1; // to b?ziemy si?"cofa? (krok ujemny)
     920:	8f ef       	ldi	r24, 0xFF	; 255
     922:	9f ef       	ldi	r25, 0xFF	; 255
     924:	9a 83       	std	Y+2, r25	; 0x02
     926:	89 83       	std	Y+1, r24	; 0x01
     928:	04 c0       	rjmp	.+8      	; 0x932 <GLCD_Line+0x74>
TwoDy = Dy + Dy; // podwojona sk쓰dowa pionowa

CurrentX = X1; // zaczynamy od X1
CurrentY = Y1; // oraz Y1

Xinc = 1; // ustalamy krok zwi?szania pozycji w poziomie 
     92a:	e1 e0       	ldi	r30, 0x01	; 1
     92c:	f0 e0       	ldi	r31, 0x00	; 0
     92e:	fa 83       	std	Y+2, r31	; 0x02
     930:	e9 83       	std	Y+1, r30	; 0x01
  Xinc = -1; // to b?ziemy si?"cofa? (krok ujemny)
  Dx = -Dx;  // zmieniamy znak sk쓰dowej na dodatni
  TwoDx = -TwoDx; // jak r?nie?podwojonej sk쓰dowej
  }

if (Dy < 0) // je랇i sk쓰dowa pionowa jest ujemna
     932:	dd 20       	and	r13, r13
     934:	64 f4       	brge	.+24     	; 0x94e <GLCD_Line+0x90>
  {
  Yinc = -1; // to b?ziemy si?"cofa? (krok ujemny)
  Dy = -Dy; // zmieniamy znak sk쓰dowej na dodatki
     936:	d0 94       	com	r13
     938:	c1 94       	neg	r12
     93a:	d1 08       	sbc	r13, r1
     93c:	d3 94       	inc	r13
  TwoDy = -TwoDy; // jak r?niez podwojonej sk쓰dowej
     93e:	70 94       	com	r7
     940:	61 94       	neg	r6
     942:	71 08       	sbc	r7, r1
     944:	73 94       	inc	r7
  TwoDx = -TwoDx; // jak r?nie?podwojonej sk쓰dowej
  }

if (Dy < 0) // je랇i sk쓰dowa pionowa jest ujemna
  {
  Yinc = -1; // to b?ziemy si?"cofa? (krok ujemny)
     946:	22 24       	eor	r2, r2
     948:	2a 94       	dec	r2
     94a:	32 2c       	mov	r3, r2
     94c:	03 c0       	rjmp	.+6      	; 0x954 <GLCD_Line+0x96>

CurrentX = X1; // zaczynamy od X1
CurrentY = Y1; // oraz Y1

Xinc = 1; // ustalamy krok zwi?szania pozycji w poziomie 
Yinc = 1; // ustalamy krok zwi?szania pozycji w pionie
     94e:	22 24       	eor	r2, r2
     950:	33 24       	eor	r3, r3
     952:	23 94       	inc	r2
  Yinc = -1; // to b?ziemy si?"cofa? (krok ujemny)
  Dy = -Dy; // zmieniamy znak sk쓰dowej na dodatki
  TwoDy = -TwoDy; // jak r?niez podwojonej sk쓰dowej
  }

GLCD_SetPixel(X1,Y1, color); // stawiamy pierwszy krok (zapalamy pierwszy piksel)
     954:	8b 81       	ldd	r24, Y+3	; 0x03
     956:	9c 81       	ldd	r25, Y+4	; 0x04
     958:	b8 01       	movw	r22, r16
     95a:	41 e0       	ldi	r20, 0x01	; 1
     95c:	50 e0       	ldi	r21, 0x00	; 0
     95e:	0e 94 a1 06 	call	0xd42	; 0xd42 <GLCD_SetPixel>

if ((Dx != 0) || (Dy != 0)) // sprawdzamy czy linia sk쓰da si?z wi?ej ni?jednego punktu ;)
     962:	e1 14       	cp	r14, r1
     964:	f1 04       	cpc	r15, r1
     966:	19 f4       	brne	.+6      	; 0x96e <GLCD_Line+0xb0>
     968:	c1 14       	cp	r12, r1
     96a:	d1 04       	cpc	r13, r1
     96c:	c9 f1       	breq	.+114    	; 0x9e0 <GLCD_Line+0x122>
  {
  // sprawdzamy czy sk쓰dowa pionowa jest mniejsza lub r?na sk쓰dowej poziomej
  if (Dy <= Dx) // je랇i tak, to idziemy "po iksach"
     96e:	ec 14       	cp	r14, r12
     970:	fd 04       	cpc	r15, r13
     972:	e4 f0       	brlt	.+56     	; 0x9ac <GLCD_Line+0xee>
     974:	68 01       	movw	r12, r16
     976:	8b 80       	ldd	r8, Y+3	; 0x03
     978:	9c 80       	ldd	r9, Y+4	; 0x04
     97a:	00 e0       	ldi	r16, 0x00	; 0
     97c:	10 e0       	ldi	r17, 0x00	; 0
	xchange += 2;
	}
  }
}

void GLCD_Line(int X1, int Y1,int X2,int Y2)
     97e:	89 81       	ldd	r24, Y+1	; 0x01
     980:	9a 81       	ldd	r25, Y+2	; 0x02
     982:	88 0e       	add	r8, r24
     984:	99 1e       	adc	r9, r25
    { 
    TwoDxAccumulatedError = 0; // zerujemy zmienn?
    do // ruszamy w drog?
	  {
      CurrentX += Xinc; // do aktualnej pozycji dodajemy krok 
      TwoDxAccumulatedError += TwoDy; // a tu dodajemy podwojon?sk쓰dow?pionow?
     986:	06 0d       	add	r16, r6
     988:	17 1d       	adc	r17, r7
      if(TwoDxAccumulatedError > Dx)  // je랇i TwoDxAccumulatedError jest wi?szy od Dx
     98a:	e0 16       	cp	r14, r16
     98c:	f1 06       	cpc	r15, r17
     98e:	24 f4       	brge	.+8      	; 0x998 <GLCD_Line+0xda>
        {
        CurrentY += Yinc; // zwi?szamy aktualn?pozycj?w pionie
     990:	c2 0c       	add	r12, r2
     992:	d3 1c       	adc	r13, r3
        TwoDxAccumulatedError -= TwoDx; // i odejmujemy TwoDx
     994:	04 19       	sub	r16, r4
     996:	15 09       	sbc	r17, r5
        }
       GLCD_SetPixel(CurrentX,CurrentY, color);// stawiamy nast?ny krok (zapalamy piksel)
     998:	c4 01       	movw	r24, r8
     99a:	b6 01       	movw	r22, r12
     99c:	41 e0       	ldi	r20, 0x01	; 1
     99e:	50 e0       	ldi	r21, 0x00	; 0
     9a0:	0e 94 a1 06 	call	0xd42	; 0xd42 <GLCD_SetPixel>
       }while (CurrentX != X2); // idziemy tak d씃go, a?osi젾niemy punkt docelowy
     9a4:	a8 14       	cp	r10, r8
     9a6:	b9 04       	cpc	r11, r9
     9a8:	51 f7       	brne	.-44     	; 0x97e <GLCD_Line+0xc0>
     9aa:	1a c0       	rjmp	.+52     	; 0x9e0 <GLCD_Line+0x122>
GLCD_SetPixel(X1,Y1, color); // stawiamy pierwszy krok (zapalamy pierwszy piksel)

if ((Dx != 0) || (Dy != 0)) // sprawdzamy czy linia sk쓰da si?z wi?ej ni?jednego punktu ;)
  {
  // sprawdzamy czy sk쓰dowa pionowa jest mniejsza lub r?na sk쓰dowej poziomej
  if (Dy <= Dx) // je랇i tak, to idziemy "po iksach"
     9ac:	eb 80       	ldd	r14, Y+3	; 0x03
     9ae:	fc 80       	ldd	r15, Y+4	; 0x04
     9b0:	aa 24       	eor	r10, r10
     9b2:	bb 24       	eor	r11, r11
	xchange += 2;
	}
  }
}

void GLCD_Line(int X1, int Y1,int X2,int Y2)
     9b4:	02 0d       	add	r16, r2
     9b6:	13 1d       	adc	r17, r3
      {
      TwoDyAccumulatedError = 0; 
      do 
	    {
        CurrentY += Yinc; 
        TwoDyAccumulatedError += TwoDx;
     9b8:	a4 0c       	add	r10, r4
     9ba:	b5 1c       	adc	r11, r5
        if(TwoDyAccumulatedError>Dy) 
     9bc:	ca 14       	cp	r12, r10
     9be:	db 04       	cpc	r13, r11
     9c0:	34 f4       	brge	.+12     	; 0x9ce <GLCD_Line+0x110>
          {
          CurrentX += Xinc;
     9c2:	e9 81       	ldd	r30, Y+1	; 0x01
     9c4:	fa 81       	ldd	r31, Y+2	; 0x02
     9c6:	ee 0e       	add	r14, r30
     9c8:	ff 1e       	adc	r15, r31
          TwoDyAccumulatedError -= TwoDy;
     9ca:	a6 18       	sub	r10, r6
     9cc:	b7 08       	sbc	r11, r7
          }
         GLCD_SetPixel(CurrentX,CurrentY, color); 
     9ce:	c7 01       	movw	r24, r14
     9d0:	b8 01       	movw	r22, r16
     9d2:	41 e0       	ldi	r20, 0x01	; 1
     9d4:	50 e0       	ldi	r21, 0x00	; 0
     9d6:	0e 94 a1 06 	call	0xd42	; 0xd42 <GLCD_SetPixel>
         }while (CurrentY != Y2);
     9da:	80 16       	cp	r8, r16
     9dc:	91 06       	cpc	r9, r17
     9de:	51 f7       	brne	.-44     	; 0x9b4 <GLCD_Line+0xf6>
    }
  }
}
     9e0:	0f 90       	pop	r0
     9e2:	0f 90       	pop	r0
     9e4:	0f 90       	pop	r0
     9e6:	0f 90       	pop	r0
     9e8:	df 91       	pop	r29
     9ea:	cf 91       	pop	r28
     9ec:	1f 91       	pop	r17
     9ee:	0f 91       	pop	r16
     9f0:	ff 90       	pop	r15
     9f2:	ef 90       	pop	r14
     9f4:	df 90       	pop	r13
     9f6:	cf 90       	pop	r12
     9f8:	bf 90       	pop	r11
     9fa:	af 90       	pop	r10
     9fc:	9f 90       	pop	r9
     9fe:	8f 90       	pop	r8
     a00:	7f 90       	pop	r7
     a02:	6f 90       	pop	r6
     a04:	5f 90       	pop	r5
     a06:	4f 90       	pop	r4
     a08:	3f 90       	pop	r3
     a0a:	2f 90       	pop	r2
     a0c:	08 95       	ret

00000a0e <GLCD_InitializePorts>:
//-------------------------------------------------------------------------------------------------
//
//-------------------------------------------------------------------------------------------------
void GLCD_InitializePorts(void)
{
	LCD_CS1_L; _delay_us(10);
     a0e:	93 98       	cbi	0x12, 3	; 18
     a10:	83 e0       	ldi	r24, 0x03	; 3
     a12:	8a 95       	dec	r24
     a14:	f1 f7       	brne	.-4      	; 0xa12 <GLCD_InitializePorts+0x4>
     a16:	00 00       	nop

	LCD_RST_H; _delay_ms(1);
     a18:	94 9a       	sbi	0x12, 4	; 18
	#else
		//round up by default
		__ticks_dc = (uint32_t)(ceil(fabs(__tmp)));
	#endif

	__builtin_avr_delay_cycles(__ticks_dc);
     a1a:	89 ef       	ldi	r24, 0xF9	; 249
     a1c:	90 e0       	ldi	r25, 0x00	; 0
     a1e:	01 97       	sbiw	r24, 0x01	; 1
     a20:	f1 f7       	brne	.-4      	; 0xa1e <GLCD_InitializePorts+0x10>
     a22:	00 c0       	rjmp	.+0      	; 0xa24 <GLCD_InitializePorts+0x16>
     a24:	00 00       	nop
	LCD_RST_L; _delay_ms(1);	
     a26:	94 98       	cbi	0x12, 4	; 18
     a28:	89 ef       	ldi	r24, 0xF9	; 249
     a2a:	90 e0       	ldi	r25, 0x00	; 0
     a2c:	01 97       	sbiw	r24, 0x01	; 1
     a2e:	f1 f7       	brne	.-4      	; 0xa2c <GLCD_InitializePorts+0x1e>
     a30:	00 c0       	rjmp	.+0      	; 0xa32 <GLCD_InitializePorts+0x24>
     a32:	00 00       	nop
	LCD_RST_H; _delay_ms(1);
     a34:	94 9a       	sbi	0x12, 4	; 18
     a36:	89 ef       	ldi	r24, 0xF9	; 249
     a38:	90 e0       	ldi	r25, 0x00	; 0
     a3a:	01 97       	sbiw	r24, 0x01	; 1
     a3c:	f1 f7       	brne	.-4      	; 0xa3a <GLCD_InitializePorts+0x2c>
     a3e:	00 c0       	rjmp	.+0      	; 0xa40 <GLCD_InitializePorts+0x32>
     a40:	00 00       	nop
	
	LCD_CS1_H;
     a42:	93 9a       	sbi	0x12, 3	; 18
	LCD_A0_H;
     a44:	95 9a       	sbi	0x12, 5	; 18
}
     a46:	08 95       	ret

00000a48 <GLCD_WriteData>:
//-------------------------------------------------------------------------------------------------
//
//-------------------------------------------------------------------------------------------------
void GLCD_WriteData(unsigned char dataToWrite)
{
	LCD_CS1_L; _delay_us(1);
     a48:	93 98       	cbi	0x12, 3	; 18
	#else
		//round up by default
		__ticks_dc = (uint32_t)(ceil(fabs(__tmp)));
	#endif

	__builtin_avr_delay_cycles(__ticks_dc);
     a4a:	00 00       	nop
	LCD_A0_H; _delay_us(1);	
     a4c:	95 9a       	sbi	0x12, 5	; 18
     a4e:	00 00       	nop
     a50:	28 e0       	ldi	r18, 0x08	; 8
     a52:	30 e0       	ldi	r19, 0x00	; 0

	for (int i = 0; i < 8; i++) 
	{		
		LCD_SCL_L;	
     a54:	96 98       	cbi	0x12, 6	; 18
		
		if (dataToWrite & 0x80) LCD_SI_H;
     a56:	88 23       	and	r24, r24
     a58:	14 f4       	brge	.+4      	; 0xa5e <GLCD_WriteData+0x16>
     a5a:	97 9a       	sbi	0x12, 7	; 18
     a5c:	01 c0       	rjmp	.+2      	; 0xa60 <GLCD_WriteData+0x18>
		else LCD_SI_L;
     a5e:	97 98       	cbi	0x12, 7	; 18
			
		LCD_SCL_H;
     a60:	96 9a       	sbi	0x12, 6	; 18
		dataToWrite = dataToWrite << 1;		
     a62:	88 0f       	add	r24, r24
     a64:	21 50       	subi	r18, 0x01	; 1
     a66:	30 40       	sbci	r19, 0x00	; 0
void GLCD_WriteData(unsigned char dataToWrite)
{
	LCD_CS1_L; _delay_us(1);
	LCD_A0_H; _delay_us(1);	

	for (int i = 0; i < 8; i++) 
     a68:	a9 f7       	brne	.-22     	; 0xa54 <GLCD_WriteData+0xc>
			
		LCD_SCL_H;
		dataToWrite = dataToWrite << 1;		
	}

	LCD_CS1_H;
     a6a:	93 9a       	sbi	0x12, 3	; 18
}
     a6c:	08 95       	ret

00000a6e <GLCD_WriteCommand>:
//-------------------------------------------------------------------------------------------------
//
//-------------------------------------------------------------------------------------------------
void GLCD_WriteCommand(unsigned char commandToWrite)
{
	LCD_CS1_L; _delay_us(1);
     a6e:	93 98       	cbi	0x12, 3	; 18
     a70:	00 00       	nop
	LCD_A0_L; _delay_us(1);
     a72:	95 98       	cbi	0x12, 5	; 18
     a74:	00 00       	nop
     a76:	28 e0       	ldi	r18, 0x08	; 8
     a78:	30 e0       	ldi	r19, 0x00	; 0

	for (int i = 0; i < 8; i++) 
	{	
		LCD_SCL_L; 	
     a7a:	96 98       	cbi	0x12, 6	; 18
		
		if (commandToWrite & 0x80) LCD_SI_H;
     a7c:	88 23       	and	r24, r24
     a7e:	14 f4       	brge	.+4      	; 0xa84 <GLCD_WriteCommand+0x16>
     a80:	97 9a       	sbi	0x12, 7	; 18
     a82:	01 c0       	rjmp	.+2      	; 0xa86 <GLCD_WriteCommand+0x18>
		else LCD_SI_L;
     a84:	97 98       	cbi	0x12, 7	; 18
		
		LCD_SCL_H;
     a86:	96 9a       	sbi	0x12, 6	; 18
		commandToWrite = commandToWrite << 1;
     a88:	88 0f       	add	r24, r24
     a8a:	21 50       	subi	r18, 0x01	; 1
     a8c:	30 40       	sbci	r19, 0x00	; 0
void GLCD_WriteCommand(unsigned char commandToWrite)
{
	LCD_CS1_L; _delay_us(1);
	LCD_A0_L; _delay_us(1);

	for (int i = 0; i < 8; i++) 
     a8e:	a9 f7       	brne	.-22     	; 0xa7a <GLCD_WriteCommand+0xc>
		
		LCD_SCL_H;
		commandToWrite = commandToWrite << 1;
	}	

	LCD_A0_H;
     a90:	95 9a       	sbi	0x12, 5	; 18
	LCD_CS1_H;
     a92:	93 9a       	sbi	0x12, 3	; 18
}
     a94:	08 95       	ret

00000a96 <GLCD_Initialize>:
//-------------------------------------------------------------------------------------------------
//
//-------------------------------------------------------------------------------------------------
void GLCD_Initialize(void)
{
	GLCD_InitializePorts();
     a96:	0e 94 07 05 	call	0xa0e	; 0xa0e <GLCD_InitializePorts>

	GLCD_WriteCommand(SPLC501C_RESET);					
     a9a:	82 ee       	ldi	r24, 0xE2	; 226
     a9c:	0e 94 37 05 	call	0xa6e	; 0xa6e <GLCD_WriteCommand>
	GLCD_WriteCommand(SPLC501C_ADC_REVERSE);
     aa0:	81 ea       	ldi	r24, 0xA1	; 161
     aa2:	0e 94 37 05 	call	0xa6e	; 0xa6e <GLCD_WriteCommand>
	GLCD_WriteCommand(SPLC501C_BIAS_19);						
     aa6:	82 ea       	ldi	r24, 0xA2	; 162
     aa8:	0e 94 37 05 	call	0xa6e	; 0xa6e <GLCD_WriteCommand>
	GLCD_WriteCommand(SPLC501C_COM0);
     aac:	80 ec       	ldi	r24, 0xC0	; 192
     aae:	0e 94 37 05 	call	0xa6e	; 0xa6e <GLCD_WriteCommand>
	GLCD_WriteCommand(SPLC501C_POWERON);
     ab2:	8f e2       	ldi	r24, 0x2F	; 47
     ab4:	0e 94 37 05 	call	0xa6e	; 0xa6e <GLCD_WriteCommand>
	#else
		//round up by default
		__ticks_dc = (uint32_t)(ceil(fabs(__tmp)));
	#endif

	__builtin_avr_delay_cycles(__ticks_dc);
     ab8:	87 ea       	ldi	r24, 0xA7	; 167
     aba:	91 e6       	ldi	r25, 0x61	; 97
     abc:	01 97       	sbiw	r24, 0x01	; 1
     abe:	f1 f7       	brne	.-4      	; 0xabc <GLCD_Initialize+0x26>
     ac0:	00 c0       	rjmp	.+0      	; 0xac2 <GLCD_Initialize+0x2c>
     ac2:	00 00       	nop
		
	_delay_ms(100);
	
	GLCD_WriteCommand(0xA4);
     ac4:	84 ea       	ldi	r24, 0xA4	; 164
     ac6:	0e 94 37 05 	call	0xa6e	; 0xa6e <GLCD_WriteCommand>
	GLCD_WriteCommand(SPLC501C_VOLUME_MODE);						
     aca:	81 e8       	ldi	r24, 0x81	; 129
     acc:	0e 94 37 05 	call	0xa6e	; 0xa6e <GLCD_WriteCommand>
	GLCD_WriteCommand(SPLC501C_VOLUME_SET | 32);
     ad0:	80 e2       	ldi	r24, 0x20	; 32
     ad2:	0e 94 37 05 	call	0xa6e	; 0xa6e <GLCD_WriteCommand>
	GLCD_WriteCommand(SPLC501C_VOLTAGE_RATIO | 3);				
     ad6:	83 e2       	ldi	r24, 0x23	; 35
     ad8:	0e 94 37 05 	call	0xa6e	; 0xa6e <GLCD_WriteCommand>
					
	GLCD_WriteCommand(SPLC501C_DISPLAY_ON);
     adc:	8f ea       	ldi	r24, 0xAF	; 175
     ade:	0e 94 37 05 	call	0xa6e	; 0xa6e <GLCD_WriteCommand>
	GLCD_WriteCommand(SPLC501C_DISPLAY_NORMAL);		
     ae2:	86 ea       	ldi	r24, 0xA6	; 166
     ae4:	0e 94 37 05 	call	0xa6e	; 0xa6e <GLCD_WriteCommand>
	
	GLCD_WriteCommand(SPLC501C_PAGE_ADDRESS | 0);
     ae8:	80 eb       	ldi	r24, 0xB0	; 176
     aea:	0e 94 37 05 	call	0xa6e	; 0xa6e <GLCD_WriteCommand>
	GLCD_WriteCommand(SPLC501C_COLUMN_ADDRESS_HI | 0);		
     aee:	80 e1       	ldi	r24, 0x10	; 16
     af0:	0e 94 37 05 	call	0xa6e	; 0xa6e <GLCD_WriteCommand>
	GLCD_WriteCommand(SPLC501C_COLUMN_ADDRESS_LO | 0);
     af4:	80 e0       	ldi	r24, 0x00	; 0
     af6:	0e 94 37 05 	call	0xa6e	; 0xa6e <GLCD_WriteCommand>
	GLCD_WriteCommand(SPLC501C_START_LINE | 0);	
     afa:	80 e4       	ldi	r24, 0x40	; 64
     afc:	0e 94 37 05 	call	0xa6e	; 0xa6e <GLCD_WriteCommand>
}
     b00:	08 95       	ret

00000b02 <GLCD_GoTo>:
//-------------------------------------------------------------------------------------------------
//
//-------------------------------------------------------------------------------------------------
void GLCD_GoTo(unsigned char x, unsigned char y)
{	
     b02:	cf 93       	push	r28
     b04:	df 93       	push	r29
     b06:	c8 2f       	mov	r28, r24
     b08:	d6 2f       	mov	r29, r22
    glcd_y = y;
     b0a:	60 93 2b 02 	sts	0x022B, r22
    glcd_x = x;
     b0e:	80 93 2a 02 	sts	0x022A, r24
	GLCD_WriteCommand(SPLC501C_COLUMN_ADDRESS_HI | (x >> 4));
     b12:	82 95       	swap	r24
     b14:	8f 70       	andi	r24, 0x0F	; 15
     b16:	80 61       	ori	r24, 0x10	; 16
     b18:	0e 94 37 05 	call	0xa6e	; 0xa6e <GLCD_WriteCommand>
	GLCD_WriteCommand(SPLC501C_COLUMN_ADDRESS_LO | (x & 0x0F));
     b1c:	8c 2f       	mov	r24, r28
     b1e:	8f 70       	andi	r24, 0x0F	; 15
     b20:	0e 94 37 05 	call	0xa6e	; 0xa6e <GLCD_WriteCommand>
	GLCD_WriteCommand(SPLC501C_PAGE_ADDRESS | y);
     b24:	8d 2f       	mov	r24, r29
     b26:	80 6b       	ori	r24, 0xB0	; 176
     b28:	0e 94 37 05 	call	0xa6e	; 0xa6e <GLCD_WriteCommand>
}
     b2c:	df 91       	pop	r29
     b2e:	cf 91       	pop	r28
     b30:	08 95       	ret

00000b32 <GLCD_ClearScreen>:
//-------------------------------------------------------------------------------------------------
//
//-------------------------------------------------------------------------------------------------
void GLCD_ClearScreen(void)
{
     b32:	1f 93       	push	r17
     b34:	cf 93       	push	r28
     b36:	df 93       	push	r29
	unsigned char x = 0, y = 0;
	for(y = 0; y < (SCREEN_HEIGHT/PIXELS_PER_PAGE); y++)
     b38:	d0 e0       	ldi	r29, 0x00	; 0
	{
		GLCD_GoTo(0,y);
     b3a:	14 e8       	ldi	r17, 0x84	; 132
     b3c:	80 e0       	ldi	r24, 0x00	; 0
     b3e:	6d 2f       	mov	r22, r29
     b40:	0e 94 81 05 	call	0xb02	; 0xb02 <GLCD_GoTo>
     b44:	c1 2f       	mov	r28, r17
		for(x = 0; x < SCREEN_WIDTH; x++)
		{
			GLCD_WriteData(0);
     b46:	80 e0       	ldi	r24, 0x00	; 0
     b48:	0e 94 24 05 	call	0xa48	; 0xa48 <GLCD_WriteData>
     b4c:	c1 50       	subi	r28, 0x01	; 1
{
	unsigned char x = 0, y = 0;
	for(y = 0; y < (SCREEN_HEIGHT/PIXELS_PER_PAGE); y++)
	{
		GLCD_GoTo(0,y);
		for(x = 0; x < SCREEN_WIDTH; x++)
     b4e:	d9 f7       	brne	.-10     	; 0xb46 <GLCD_ClearScreen+0x14>
//
//-------------------------------------------------------------------------------------------------
void GLCD_ClearScreen(void)
{
	unsigned char x = 0, y = 0;
	for(y = 0; y < (SCREEN_HEIGHT/PIXELS_PER_PAGE); y++)
     b50:	df 5f       	subi	r29, 0xFF	; 255
     b52:	d8 30       	cpi	r29, 0x08	; 8
     b54:	99 f7       	brne	.-26     	; 0xb3c <GLCD_ClearScreen+0xa>
		for(x = 0; x < SCREEN_WIDTH; x++)
		{
			GLCD_WriteData(0);
		}
	}
}		
     b56:	df 91       	pop	r29
     b58:	cf 91       	pop	r28
     b5a:	1f 91       	pop	r17
     b5c:	08 95       	ret

00000b5e <GLCD_WriteChar5x7>:
// Function : GLCD_WriteChar5x7
// Artuments : Char ASCII code
// Return value : none
//-------------------------------------------------------------------------------------------------
void GLCD_WriteChar5x7(char charCode)
{
     b5e:	0f 93       	push	r16
     b60:	1f 93       	push	r17
     b62:	cf 93       	push	r28
     b64:	df 93       	push	r29
	unsigned char fontCollumn;
	
	for(fontCollumn = 0; fontCollumn < FONT_WIDTH; fontCollumn++)
	  GLCD_WriteData(pgm_read_byte(&font5x7[((charCode- FONT_OFFSET) * FONT_WIDTH) + fontCollumn]));
     b66:	90 e0       	ldi	r25, 0x00	; 0
     b68:	8c 01       	movw	r16, r24
     b6a:	00 0f       	add	r16, r16
     b6c:	11 1f       	adc	r17, r17
     b6e:	00 0f       	add	r16, r16
     b70:	11 1f       	adc	r17, r17
     b72:	08 0f       	add	r16, r24
     b74:	19 1f       	adc	r17, r25
     b76:	e8 01       	movw	r28, r16
     b78:	c0 5a       	subi	r28, 0xA0	; 160
     b7a:	d0 40       	sbci	r29, 0x00	; 0
//-------------------------------------------------------------------------------------------------
// Function : GLCD_WriteChar5x7
// Artuments : Char ASCII code
// Return value : none
//-------------------------------------------------------------------------------------------------
void GLCD_WriteChar5x7(char charCode)
     b7c:	0b 59       	subi	r16, 0x9B	; 155
     b7e:	10 40       	sbci	r17, 0x00	; 0
{
	unsigned char fontCollumn;
	
	for(fontCollumn = 0; fontCollumn < FONT_WIDTH; fontCollumn++)
	  GLCD_WriteData(pgm_read_byte(&font5x7[((charCode- FONT_OFFSET) * FONT_WIDTH) + fontCollumn]));
     b80:	fe 01       	movw	r30, r28
     b82:	ea 5b       	subi	r30, 0xBA	; 186
     b84:	fc 4f       	sbci	r31, 0xFC	; 252
     b86:	84 91       	lpm	r24, Z
     b88:	0e 94 24 05 	call	0xa48	; 0xa48 <GLCD_WriteData>
     b8c:	21 96       	adiw	r28, 0x01	; 1
//-------------------------------------------------------------------------------------------------
void GLCD_WriteChar5x7(char charCode)
{
	unsigned char fontCollumn;
	
	for(fontCollumn = 0; fontCollumn < FONT_WIDTH; fontCollumn++)
     b8e:	c0 17       	cp	r28, r16
     b90:	d1 07       	cpc	r29, r17
     b92:	b1 f7       	brne	.-20     	; 0xb80 <GLCD_WriteChar5x7+0x22>
	  GLCD_WriteData(pgm_read_byte(&font5x7[((charCode- FONT_OFFSET) * FONT_WIDTH) + fontCollumn]));
	GLCD_WriteData(0);
     b94:	80 e0       	ldi	r24, 0x00	; 0
     b96:	0e 94 24 05 	call	0xa48	; 0xa48 <GLCD_WriteData>
}
     b9a:	df 91       	pop	r29
     b9c:	cf 91       	pop	r28
     b9e:	1f 91       	pop	r17
     ba0:	0f 91       	pop	r16
     ba2:	08 95       	ret

00000ba4 <GLCD_InvWriteChar5x7>:

void GLCD_InvWriteChar5x7(char charCode)
{
     ba4:	0f 93       	push	r16
     ba6:	1f 93       	push	r17
     ba8:	cf 93       	push	r28
     baa:	df 93       	push	r29
	unsigned char fontCollumn;
	
	for(fontCollumn = 0; fontCollumn < FONT_WIDTH; fontCollumn++)
		GLCD_WriteData(~pgm_read_byte(&font5x7[((charCode- FONT_OFFSET) * FONT_WIDTH) + fontCollumn]));
     bac:	90 e0       	ldi	r25, 0x00	; 0
     bae:	8c 01       	movw	r16, r24
     bb0:	00 0f       	add	r16, r16
     bb2:	11 1f       	adc	r17, r17
     bb4:	00 0f       	add	r16, r16
     bb6:	11 1f       	adc	r17, r17
     bb8:	08 0f       	add	r16, r24
     bba:	19 1f       	adc	r17, r25
     bbc:	e8 01       	movw	r28, r16
     bbe:	c0 5a       	subi	r28, 0xA0	; 160
     bc0:	d0 40       	sbci	r29, 0x00	; 0
	for(fontCollumn = 0; fontCollumn < FONT_WIDTH; fontCollumn++)
	  GLCD_WriteData(pgm_read_byte(&font5x7[((charCode- FONT_OFFSET) * FONT_WIDTH) + fontCollumn]));
	GLCD_WriteData(0);
}

void GLCD_InvWriteChar5x7(char charCode)
     bc2:	0b 59       	subi	r16, 0x9B	; 155
     bc4:	10 40       	sbci	r17, 0x00	; 0
{
	unsigned char fontCollumn;
	
	for(fontCollumn = 0; fontCollumn < FONT_WIDTH; fontCollumn++)
		GLCD_WriteData(~pgm_read_byte(&font5x7[((charCode- FONT_OFFSET) * FONT_WIDTH) + fontCollumn]));
     bc6:	fe 01       	movw	r30, r28
     bc8:	ea 5b       	subi	r30, 0xBA	; 186
     bca:	fc 4f       	sbci	r31, 0xFC	; 252
     bcc:	84 91       	lpm	r24, Z
     bce:	80 95       	com	r24
     bd0:	0e 94 24 05 	call	0xa48	; 0xa48 <GLCD_WriteData>
     bd4:	21 96       	adiw	r28, 0x01	; 1

void GLCD_InvWriteChar5x7(char charCode)
{
	unsigned char fontCollumn;
	
	for(fontCollumn = 0; fontCollumn < FONT_WIDTH; fontCollumn++)
     bd6:	c0 17       	cp	r28, r16
     bd8:	d1 07       	cpc	r29, r17
     bda:	a9 f7       	brne	.-22     	; 0xbc6 <GLCD_InvWriteChar5x7+0x22>
		GLCD_WriteData(~pgm_read_byte(&font5x7[((charCode- FONT_OFFSET) * FONT_WIDTH) + fontCollumn]));
	GLCD_WriteData(0);
     bdc:	80 e0       	ldi	r24, 0x00	; 0
     bde:	0e 94 24 05 	call	0xa48	; 0xa48 <GLCD_WriteData>
}
     be2:	df 91       	pop	r29
     be4:	cf 91       	pop	r28
     be6:	1f 91       	pop	r17
     be8:	0f 91       	pop	r16
     bea:	08 95       	ret

00000bec <GLCD_WriteString5x7>:
// Function : GLCD_WriteString5x7
// Arguments : pointer to null-terminated ASCII string
// Return value : none
//-------------------------------------------------------------------------------------------------
void GLCD_WriteString5x7(char * string)
{
     bec:	cf 93       	push	r28
     bee:	df 93       	push	r29
     bf0:	ec 01       	movw	r28, r24
	while(*string)
     bf2:	88 81       	ld	r24, Y
     bf4:	88 23       	and	r24, r24
     bf6:	31 f0       	breq	.+12     	; 0xc04 <GLCD_WriteString5x7+0x18>
//-------------------------------------------------------------------------------------------------
// Function : GLCD_WriteString5x7
// Arguments : pointer to null-terminated ASCII string
// Return value : none
//-------------------------------------------------------------------------------------------------
void GLCD_WriteString5x7(char * string)
     bf8:	21 96       	adiw	r28, 0x01	; 1
{
	while(*string)
	{
		GLCD_WriteChar5x7(*string++);
     bfa:	0e 94 af 05 	call	0xb5e	; 0xb5e <GLCD_WriteChar5x7>
// Arguments : pointer to null-terminated ASCII string
// Return value : none
//-------------------------------------------------------------------------------------------------
void GLCD_WriteString5x7(char * string)
{
	while(*string)
     bfe:	89 91       	ld	r24, Y+
     c00:	88 23       	and	r24, r24
     c02:	d9 f7       	brne	.-10     	; 0xbfa <GLCD_WriteString5x7+0xe>
	{
		GLCD_WriteChar5x7(*string++);
	}
}
     c04:	df 91       	pop	r29
     c06:	cf 91       	pop	r28
     c08:	08 95       	ret

00000c0a <GLCD_InvWriteString5x7>:
void GLCD_InvWriteString5x7(char * string)
{
     c0a:	cf 93       	push	r28
     c0c:	df 93       	push	r29
     c0e:	ec 01       	movw	r28, r24
	while(*string)
     c10:	88 81       	ld	r24, Y
     c12:	88 23       	and	r24, r24
     c14:	31 f0       	breq	.+12     	; 0xc22 <GLCD_InvWriteString5x7+0x18>
	while(*string)
	{
		GLCD_WriteChar5x7(*string++);
	}
}
void GLCD_InvWriteString5x7(char * string)
     c16:	21 96       	adiw	r28, 0x01	; 1
{
	while(*string)
	{
		GLCD_InvWriteChar5x7(*string++);
     c18:	0e 94 d2 05 	call	0xba4	; 0xba4 <GLCD_InvWriteChar5x7>
		GLCD_WriteChar5x7(*string++);
	}
}
void GLCD_InvWriteString5x7(char * string)
{
	while(*string)
     c1c:	89 91       	ld	r24, Y+
     c1e:	88 23       	and	r24, r24
     c20:	d9 f7       	brne	.-10     	; 0xc18 <GLCD_InvWriteString5x7+0xe>
	{
		GLCD_InvWriteChar5x7(*string++);
	}
}
     c22:	df 91       	pop	r29
     c24:	cf 91       	pop	r28
     c26:	08 95       	ret

00000c28 <GLCD_WriteChar19x24>:
//-------------------------------------------------------------------------------------------------
// Function : GLCD_WriteChar10x16
// Artuments : Char ASCII code
// Return value : none
//-------------------------------------------------------------------------------------------------
void GLCD_WriteChar19x24(char charCode) {
     c28:	af 92       	push	r10
     c2a:	bf 92       	push	r11
     c2c:	cf 92       	push	r12
     c2e:	df 92       	push	r13
     c30:	ef 92       	push	r14
     c32:	ff 92       	push	r15
     c34:	0f 93       	push	r16
     c36:	1f 93       	push	r17
     c38:	cf 93       	push	r28
     c3a:	df 93       	push	r29
     c3c:	d8 2e       	mov	r13, r24
    unsigned char fontCollumn;
    unsigned char x,y;

    y = glcd_y;
     c3e:	e0 90 2b 02 	lds	r14, 0x022B
    x = glcd_x;
     c42:	c0 90 2a 02 	lds	r12, 0x022A
	
    for (fontCollumn = 1; fontCollumn < FONT_WIDTH19x24; fontCollumn+=3) {
        GLCD_GoTo(x,y);
		if (charCode == ' ') GLCD_WriteData(0x00);
        else GLCD_WriteData(pgm_read_byte(&font19x24[((charCode - FONT_OFFSET19x24) * FONT_WIDTH19x24) + fontCollumn]));
     c46:	28 2f       	mov	r18, r24
     c48:	30 e0       	ldi	r19, 0x00	; 0
     c4a:	8a e3       	ldi	r24, 0x3A	; 58
     c4c:	90 e0       	ldi	r25, 0x00	; 0
     c4e:	28 9f       	mul	r18, r24
     c50:	a0 01       	movw	r20, r0
     c52:	29 9f       	mul	r18, r25
     c54:	50 0d       	add	r21, r0
     c56:	38 9f       	mul	r19, r24
     c58:	50 0d       	add	r21, r0
     c5a:	11 24       	eor	r1, r1
//-------------------------------------------------------------------------------------------------
// Function : GLCD_WriteChar10x16
// Artuments : Char ASCII code
// Return value : none
//-------------------------------------------------------------------------------------------------
void GLCD_WriteChar19x24(char charCode) {
     c5c:	8a 01       	movw	r16, r20
     c5e:	01 53       	subi	r16, 0x31	; 49
     c60:	1a 40       	sbci	r17, 0x0A	; 10
     c62:	0f 2e       	mov	r0, r31
     c64:	f8 e0       	ldi	r31, 0x08	; 8
     c66:	af 2e       	mov	r10, r31
     c68:	f6 ef       	ldi	r31, 0xF6	; 246
     c6a:	bf 2e       	mov	r11, r31
     c6c:	f0 2d       	mov	r31, r0
     c6e:	a4 0e       	add	r10, r20
     c70:	b5 1e       	adc	r11, r21
    unsigned char fontCollumn;
    unsigned char x,y;

    y = glcd_y;
    x = glcd_x;
     c72:	cc 2d       	mov	r28, r12
	
    for (fontCollumn = 1; fontCollumn < FONT_WIDTH19x24; fontCollumn+=3) {
        GLCD_GoTo(x,y);
		if (charCode == ' ') GLCD_WriteData(0x00);
        else GLCD_WriteData(pgm_read_byte(&font19x24[((charCode - FONT_OFFSET19x24) * FONT_WIDTH19x24) + fontCollumn]));
        GLCD_GoTo(x,y+1);
     c74:	de 2d       	mov	r29, r14
     c76:	df 5f       	subi	r29, 0xFF	; 255
		if (charCode == ' ') GLCD_WriteData(0x00);
        else GLCD_WriteData(pgm_read_byte(&font19x24[((charCode - FONT_OFFSET19x24) * FONT_WIDTH19x24) + fontCollumn + 1]));
        GLCD_GoTo(x,y+2);
     c78:	ff 24       	eor	r15, r15
     c7a:	68 94       	set
     c7c:	f1 f8       	bld	r15, 1
     c7e:	fe 0c       	add	r15, r14

    y = glcd_y;
    x = glcd_x;
	
    for (fontCollumn = 1; fontCollumn < FONT_WIDTH19x24; fontCollumn+=3) {
        GLCD_GoTo(x,y);
     c80:	8c 2f       	mov	r24, r28
     c82:	6e 2d       	mov	r22, r14
     c84:	0e 94 81 05 	call	0xb02	; 0xb02 <GLCD_GoTo>
		if (charCode == ' ') GLCD_WriteData(0x00);
     c88:	80 e2       	ldi	r24, 0x20	; 32
     c8a:	d8 16       	cp	r13, r24
     c8c:	91 f4       	brne	.+36     	; 0xcb2 <GLCD_WriteChar19x24+0x8a>
     c8e:	80 e0       	ldi	r24, 0x00	; 0
     c90:	0e 94 24 05 	call	0xa48	; 0xa48 <GLCD_WriteData>
        else GLCD_WriteData(pgm_read_byte(&font19x24[((charCode - FONT_OFFSET19x24) * FONT_WIDTH19x24) + fontCollumn]));
        GLCD_GoTo(x,y+1);
     c94:	8c 2f       	mov	r24, r28
     c96:	6d 2f       	mov	r22, r29
     c98:	0e 94 81 05 	call	0xb02	; 0xb02 <GLCD_GoTo>
		if (charCode == ' ') GLCD_WriteData(0x00);
     c9c:	80 e0       	ldi	r24, 0x00	; 0
     c9e:	0e 94 24 05 	call	0xa48	; 0xa48 <GLCD_WriteData>
        else GLCD_WriteData(pgm_read_byte(&font19x24[((charCode - FONT_OFFSET19x24) * FONT_WIDTH19x24) + fontCollumn + 1]));
        GLCD_GoTo(x,y+2);
     ca2:	8c 2f       	mov	r24, r28
     ca4:	6f 2d       	mov	r22, r15
     ca6:	0e 94 81 05 	call	0xb02	; 0xb02 <GLCD_GoTo>
		if (charCode == ' ') GLCD_WriteData(0x00);
     caa:	80 e0       	ldi	r24, 0x00	; 0
     cac:	0e 94 24 05 	call	0xa48	; 0xa48 <GLCD_WriteData>
     cb0:	1a c0       	rjmp	.+52     	; 0xce6 <GLCD_WriteChar19x24+0xbe>
    x = glcd_x;
	
    for (fontCollumn = 1; fontCollumn < FONT_WIDTH19x24; fontCollumn+=3) {
        GLCD_GoTo(x,y);
		if (charCode == ' ') GLCD_WriteData(0x00);
        else GLCD_WriteData(pgm_read_byte(&font19x24[((charCode - FONT_OFFSET19x24) * FONT_WIDTH19x24) + fontCollumn]));
     cb2:	f8 01       	movw	r30, r16
     cb4:	ec 5a       	subi	r30, 0xAC	; 172
     cb6:	ff 4f       	sbci	r31, 0xFF	; 255
     cb8:	84 91       	lpm	r24, Z
     cba:	0e 94 24 05 	call	0xa48	; 0xa48 <GLCD_WriteData>
        GLCD_GoTo(x,y+1);
     cbe:	8c 2f       	mov	r24, r28
     cc0:	6d 2f       	mov	r22, r29
     cc2:	0e 94 81 05 	call	0xb02	; 0xb02 <GLCD_GoTo>
		if (charCode == ' ') GLCD_WriteData(0x00);
        else GLCD_WriteData(pgm_read_byte(&font19x24[((charCode - FONT_OFFSET19x24) * FONT_WIDTH19x24) + fontCollumn + 1]));
     cc6:	f8 01       	movw	r30, r16
     cc8:	eb 5a       	subi	r30, 0xAB	; 171
     cca:	ff 4f       	sbci	r31, 0xFF	; 255
     ccc:	84 91       	lpm	r24, Z
     cce:	0e 94 24 05 	call	0xa48	; 0xa48 <GLCD_WriteData>
        GLCD_GoTo(x,y+2);
     cd2:	8c 2f       	mov	r24, r28
     cd4:	6f 2d       	mov	r22, r15
     cd6:	0e 94 81 05 	call	0xb02	; 0xb02 <GLCD_GoTo>
		if (charCode == ' ') GLCD_WriteData(0x00);
        else GLCD_WriteData(pgm_read_byte(&font19x24[((charCode - FONT_OFFSET19x24) * FONT_WIDTH19x24) + fontCollumn + 2]));
     cda:	f8 01       	movw	r30, r16
     cdc:	ea 5a       	subi	r30, 0xAA	; 170
     cde:	ff 4f       	sbci	r31, 0xFF	; 255
     ce0:	84 91       	lpm	r24, Z
     ce2:	0e 94 24 05 	call	0xa48	; 0xa48 <GLCD_WriteData>
        x++;
     ce6:	cf 5f       	subi	r28, 0xFF	; 255
     ce8:	0d 5f       	subi	r16, 0xFD	; 253
     cea:	1f 4f       	sbci	r17, 0xFF	; 255
    unsigned char x,y;

    y = glcd_y;
    x = glcd_x;
	
    for (fontCollumn = 1; fontCollumn < FONT_WIDTH19x24; fontCollumn+=3) {
     cec:	0a 15       	cp	r16, r10
     cee:	1b 05       	cpc	r17, r11
     cf0:	09 f0       	breq	.+2      	; 0xcf4 <GLCD_WriteChar19x24+0xcc>
     cf2:	c6 cf       	rjmp	.-116    	; 0xc80 <GLCD_WriteChar19x24+0x58>
     cf4:	cc 2d       	mov	r28, r12
     cf6:	cd 5e       	subi	r28, 0xED	; 237
        GLCD_GoTo(x,y+2);
		if (charCode == ' ') GLCD_WriteData(0x00);
        else GLCD_WriteData(pgm_read_byte(&font19x24[((charCode - FONT_OFFSET19x24) * FONT_WIDTH19x24) + fontCollumn + 2]));
        x++;
    }
    GLCD_WriteData(0);
     cf8:	80 e0       	ldi	r24, 0x00	; 0
     cfa:	0e 94 24 05 	call	0xa48	; 0xa48 <GLCD_WriteData>
	if (charCode == '.') x -= 5;
     cfe:	8e e2       	ldi	r24, 0x2E	; 46
     d00:	d8 16       	cp	r13, r24
     d02:	09 f4       	brne	.+2      	; 0xd06 <GLCD_WriteChar19x24+0xde>
     d04:	c5 50       	subi	r28, 0x05	; 5
    GLCD_GoTo(x,y);
     d06:	8c 2f       	mov	r24, r28
     d08:	6e 2d       	mov	r22, r14
     d0a:	0e 94 81 05 	call	0xb02	; 0xb02 <GLCD_GoTo>
}
     d0e:	df 91       	pop	r29
     d10:	cf 91       	pop	r28
     d12:	1f 91       	pop	r17
     d14:	0f 91       	pop	r16
     d16:	ff 90       	pop	r15
     d18:	ef 90       	pop	r14
     d1a:	df 90       	pop	r13
     d1c:	cf 90       	pop	r12
     d1e:	bf 90       	pop	r11
     d20:	af 90       	pop	r10
     d22:	08 95       	ret

00000d24 <GLCD_WriteString19x24>:
// Function : GLCD_WriteString10x16
// Arguments : pointer to null-terminated ASCII string
// Return value : none
//-------------------------------------------------------------------------------------------------

void GLCD_WriteString19x24(char * string) {
     d24:	cf 93       	push	r28
     d26:	df 93       	push	r29
     d28:	ec 01       	movw	r28, r24
    while (*string) {
     d2a:	88 81       	ld	r24, Y
     d2c:	88 23       	and	r24, r24
     d2e:	31 f0       	breq	.+12     	; 0xd3c <GLCD_WriteString19x24+0x18>
// Function : GLCD_WriteString10x16
// Arguments : pointer to null-terminated ASCII string
// Return value : none
//-------------------------------------------------------------------------------------------------

void GLCD_WriteString19x24(char * string) {
     d30:	21 96       	adiw	r28, 0x01	; 1
    while (*string) {
        GLCD_WriteChar19x24(*string++);
     d32:	0e 94 14 06 	call	0xc28	; 0xc28 <GLCD_WriteChar19x24>
// Arguments : pointer to null-terminated ASCII string
// Return value : none
//-------------------------------------------------------------------------------------------------

void GLCD_WriteString19x24(char * string) {
    while (*string) {
     d36:	89 91       	ld	r24, Y+
     d38:	88 23       	and	r24, r24
     d3a:	d9 f7       	brne	.-10     	; 0xd32 <GLCD_WriteString19x24+0xe>
        GLCD_WriteChar19x24(*string++);
    }
}
     d3c:	df 91       	pop	r29
     d3e:	cf 91       	pop	r28
     d40:	08 95       	ret

00000d42 <GLCD_SetPixel>:
// Function : GLCD_SetPixel
// Arguments : x-location, y-location, color (0 or 1)
// Return value : None
//-------------------------------------------------------------------------------------------------
void GLCD_SetPixel(int x, int y, int color)
{
     d42:	ef 92       	push	r14
     d44:	ff 92       	push	r15
     d46:	0f 93       	push	r16
     d48:	1f 93       	push	r17
     d4a:	cf 93       	push	r28
     d4c:	df 93       	push	r29
     d4e:	c8 2f       	mov	r28, r24
     d50:	8b 01       	movw	r16, r22
     d52:	7a 01       	movw	r14, r20
	unsigned char temp = 0;  
	GLCD_GoTo(x, (y/8)); 
     d54:	11 23       	and	r17, r17
     d56:	14 f4       	brge	.+4      	; 0xd5c <GLCD_SetPixel+0x1a>
     d58:	69 5f       	subi	r22, 0xF9	; 249
     d5a:	7f 4f       	sbci	r23, 0xFF	; 255
     d5c:	75 95       	asr	r23
     d5e:	67 95       	ror	r22
     d60:	75 95       	asr	r23
     d62:	67 95       	ror	r22
     d64:	75 95       	asr	r23
     d66:	67 95       	ror	r22
     d68:	d6 2f       	mov	r29, r22
     d6a:	8c 2f       	mov	r24, r28
     d6c:	0e 94 81 05 	call	0xb02	; 0xb02 <GLCD_GoTo>
	//temp = GLCD_ReadData(); 
	if(color)
     d70:	e1 14       	cp	r14, r1
     d72:	f1 04       	cpc	r15, r1
     d74:	79 f0       	breq	.+30     	; 0xd94 <GLCD_SetPixel+0x52>
		temp |= (1 << (y % 8));
     d76:	c8 01       	movw	r24, r16
     d78:	68 e0       	ldi	r22, 0x08	; 8
     d7a:	70 e0       	ldi	r23, 0x00	; 0
     d7c:	0e 94 30 17 	call	0x2e60	; 0x2e60 <__divmodhi4>
     d80:	21 e0       	ldi	r18, 0x01	; 1
     d82:	30 e0       	ldi	r19, 0x00	; 0
     d84:	a9 01       	movw	r20, r18
     d86:	02 c0       	rjmp	.+4      	; 0xd8c <GLCD_SetPixel+0x4a>
     d88:	44 0f       	add	r20, r20
     d8a:	55 1f       	adc	r21, r21
     d8c:	8a 95       	dec	r24
     d8e:	e2 f7       	brpl	.-8      	; 0xd88 <GLCD_SetPixel+0x46>
     d90:	04 2f       	mov	r16, r20
     d92:	01 c0       	rjmp	.+2      	; 0xd96 <GLCD_SetPixel+0x54>
	else
		temp &= ~(1 << (y % 8));
     d94:	00 e0       	ldi	r16, 0x00	; 0
	GLCD_GoTo(x, (y/8)); 
     d96:	8c 2f       	mov	r24, r28
     d98:	6d 2f       	mov	r22, r29
     d9a:	0e 94 81 05 	call	0xb02	; 0xb02 <GLCD_GoTo>
	GLCD_WriteData(temp); 
     d9e:	80 2f       	mov	r24, r16
     da0:	0e 94 24 05 	call	0xa48	; 0xa48 <GLCD_WriteData>
}
     da4:	df 91       	pop	r29
     da6:	cf 91       	pop	r28
     da8:	1f 91       	pop	r17
     daa:	0f 91       	pop	r16
     dac:	ff 90       	pop	r15
     dae:	ef 90       	pop	r14
     db0:	08 95       	ret

00000db2 <GLCD_Bitmap>:
//-------------------------------------------------------------------------------------------------
//
//-------------------------------------------------------------------------------------------------
void GLCD_Bitmap(char * bitmap,unsigned char left, unsigned char top, unsigned char width, unsigned char height)
{
     db2:	7f 92       	push	r7
     db4:	8f 92       	push	r8
     db6:	9f 92       	push	r9
     db8:	af 92       	push	r10
     dba:	bf 92       	push	r11
     dbc:	cf 92       	push	r12
     dbe:	df 92       	push	r13
     dc0:	ef 92       	push	r14
     dc2:	ff 92       	push	r15
     dc4:	0f 93       	push	r16
     dc6:	1f 93       	push	r17
     dc8:	cf 93       	push	r28
     dca:	df 93       	push	r29
     dcc:	6c 01       	movw	r12, r24
     dce:	76 2e       	mov	r7, r22
     dd0:	e4 2e       	mov	r14, r20
     dd2:	82 2e       	mov	r8, r18
	unsigned char pageIndex, columnIndex;
	for(pageIndex = 0; pageIndex < height / 8; pageIndex++)
     dd4:	90 2e       	mov	r9, r16
     dd6:	96 94       	lsr	r9
     dd8:	96 94       	lsr	r9
     dda:	96 94       	lsr	r9
     ddc:	f9 f0       	breq	.+62     	; 0xe1c <GLCD_Bitmap+0x6a>
     dde:	ff 24       	eor	r15, r15
	GLCD_WriteData(temp); 
}
//-------------------------------------------------------------------------------------------------
//
//-------------------------------------------------------------------------------------------------
void GLCD_Bitmap(char * bitmap,unsigned char left, unsigned char top, unsigned char width, unsigned char height)
     de0:	a2 2e       	mov	r10, r18
     de2:	aa 94       	dec	r10
     de4:	bb 24       	eor	r11, r11
     de6:	08 94       	sec
     de8:	a1 1c       	adc	r10, r1
     dea:	b1 1c       	adc	r11, r1
{
	unsigned char pageIndex, columnIndex;
	for(pageIndex = 0; pageIndex < height / 8; pageIndex++)
	{
		GLCD_GoTo(left, top + pageIndex);
     dec:	6f 2d       	mov	r22, r15
     dee:	6e 0d       	add	r22, r14
     df0:	87 2d       	mov	r24, r7
     df2:	0e 94 81 05 	call	0xb02	; 0xb02 <GLCD_GoTo>
		for(columnIndex = 0; columnIndex < width; columnIndex++)
     df6:	88 20       	and	r8, r8
     df8:	71 f0       	breq	.+28     	; 0xe16 <GLCD_Bitmap+0x64>
	GLCD_WriteData(temp); 
}
//-------------------------------------------------------------------------------------------------
//
//-------------------------------------------------------------------------------------------------
void GLCD_Bitmap(char * bitmap,unsigned char left, unsigned char top, unsigned char width, unsigned char height)
     dfa:	e6 01       	movw	r28, r12
     dfc:	ca 0d       	add	r28, r10
     dfe:	db 1d       	adc	r29, r11
     e00:	86 01       	movw	r16, r12
	unsigned char pageIndex, columnIndex;
	for(pageIndex = 0; pageIndex < height / 8; pageIndex++)
	{
		GLCD_GoTo(left, top + pageIndex);
		for(columnIndex = 0; columnIndex < width; columnIndex++)
			GLCD_WriteData(*(bitmap++)); 
     e02:	f8 01       	movw	r30, r16
     e04:	81 91       	ld	r24, Z+
     e06:	8f 01       	movw	r16, r30
     e08:	0e 94 24 05 	call	0xa48	; 0xa48 <GLCD_WriteData>
{
	unsigned char pageIndex, columnIndex;
	for(pageIndex = 0; pageIndex < height / 8; pageIndex++)
	{
		GLCD_GoTo(left, top + pageIndex);
		for(columnIndex = 0; columnIndex < width; columnIndex++)
     e0c:	0c 17       	cp	r16, r28
     e0e:	1d 07       	cpc	r17, r29
     e10:	c1 f7       	brne	.-16     	; 0xe02 <GLCD_Bitmap+0x50>
     e12:	ca 0c       	add	r12, r10
     e14:	db 1c       	adc	r13, r11
//
//-------------------------------------------------------------------------------------------------
void GLCD_Bitmap(char * bitmap,unsigned char left, unsigned char top, unsigned char width, unsigned char height)
{
	unsigned char pageIndex, columnIndex;
	for(pageIndex = 0; pageIndex < height / 8; pageIndex++)
     e16:	f3 94       	inc	r15
     e18:	f9 14       	cp	r15, r9
     e1a:	41 f7       	brne	.-48     	; 0xdec <GLCD_Bitmap+0x3a>
	{
		GLCD_GoTo(left, top + pageIndex);
		for(columnIndex = 0; columnIndex < width; columnIndex++)
			GLCD_WriteData(*(bitmap++)); 
	}
}
     e1c:	df 91       	pop	r29
     e1e:	cf 91       	pop	r28
     e20:	1f 91       	pop	r17
     e22:	0f 91       	pop	r16
     e24:	ff 90       	pop	r15
     e26:	ef 90       	pop	r14
     e28:	df 90       	pop	r13
     e2a:	cf 90       	pop	r12
     e2c:	bf 90       	pop	r11
     e2e:	af 90       	pop	r10
     e30:	9f 90       	pop	r9
     e32:	8f 90       	pop	r8
     e34:	7f 90       	pop	r7
     e36:	08 95       	ret

00000e38 <I2C_Init>:

//#define DEBUG

void I2C_Init(){
	
	TWBR = 0x02;							//Freq = CPU_Clock/(16+2*TWBR[0]-4^TWSR[0]) = 50KHz
     e38:	82 e0       	ldi	r24, 0x02	; 2
     e3a:	80 b9       	out	0x00, r24	; 0
	TWSR = 0x00;
     e3c:	11 b8       	out	0x01, r1	; 1

	TWCR = (1 << TWEN) | (1 << TWEA);		//I2C 턇쨬턄  ACK 肌.
     e3e:	84 e4       	ldi	r24, 0x44	; 68
     e40:	86 bf       	out	0x36, r24	; 54
#ifdef DEBUG
	GLCD_GoTo(8, 5);
	GLCD_WriteString5x7("LDC INIT---!");
#endif
	
}
     e42:	08 95       	ret

00000e44 <I2C_Start>:

void I2C_Start(){
	TWCR = (1<<TWINT) | (1<<TWSTA) | (1<<TWEN) | (1<<TWEA);
     e44:	84 ee       	ldi	r24, 0xE4	; 228
     e46:	86 bf       	out	0x36, r24	; 54
	while(!(TWCR & (1<<TWINT)));				//쫚첕핑 얾쐑
     e48:	06 b6       	in	r0, 0x36	; 54
     e4a:	07 fe       	sbrs	r0, 7
     e4c:	fd cf       	rjmp	.-6      	; 0xe48 <I2C_Start+0x4>
#ifdef DEBUG
	GLCD_GoTo(8, 5);
	GLCD_WriteString5x7("LDC START---!");
#endif
}
     e4e:	08 95       	ret

00000e50 <I2C_Transmit>:

void I2C_Transmit(uint8_t data){
	TWDR = data;
     e50:	83 b9       	out	0x03, r24	; 3
	TWCR = (1 << TWINT) | (1 << TWEN) | (1<<TWEA);
     e52:	84 ec       	ldi	r24, 0xC4	; 196
     e54:	86 bf       	out	0x36, r24	; 54
	while(!(TWCR & (1 << TWINT)));			//첲쩉핑 얾쐑
     e56:	06 b6       	in	r0, 0x36	; 54
     e58:	07 fe       	sbrs	r0, 7
     e5a:	fd cf       	rjmp	.-6      	; 0xe56 <I2C_Transmit+0x6>
#ifdef DEBUG
	GLCD_GoTo(8, 5);
	GLCD_WriteString5x7("LDC TRANS---!");
#endif
}
     e5c:	08 95       	ret

00000e5e <I2C_Receive>:

uint8_t I2C_Receive(){
	TWCR = (1 << TWINT) | (1 << TWEN) | (1<<TWEA);
     e5e:	84 ec       	ldi	r24, 0xC4	; 196
     e60:	86 bf       	out	0x36, r24	; 54
	while(!(TWCR & (1 << TWINT)));			//쩠쫜핑 얾쐑
     e62:	06 b6       	in	r0, 0x36	; 54
     e64:	07 fe       	sbrs	r0, 7
     e66:	fd cf       	rjmp	.-6      	; 0xe62 <I2C_Receive+0x4>
#ifdef DEBUG
	GLCD_GoTo(8, 5);
	GLCD_WriteString5x7("LDC RECEIVE---!");
#endif
	return TWDR;
     e68:	83 b1       	in	r24, 0x03	; 3
}
     e6a:	08 95       	ret

00000e6c <I2C_Stop>:

void I2C_Stop(){
	TWCR = (1<<TWINT) | (1<<TWSTO) | (1<<TWEN) | (1<<TWEA);
     e6c:	84 ed       	ldi	r24, 0xD4	; 212
     e6e:	86 bf       	out	0x36, r24	; 54
#ifdef DEBUG
	GLCD_GoTo(8, 5);
	GLCD_WriteString5x7("LDC STOP---!");
#endif
     e70:	08 95       	ret

00000e72 <Read_Data>:
	Set_Gain(gain);
	SleepMode_Control(SLEEP_MODE_DIS);
	_delay_ms(100);
}

uint16_t Read_Data(uint8_t addr){
     e72:	cf 93       	push	r28
     e74:	df 93       	push	r29
     e76:	c8 2f       	mov	r28, r24
	uint8_t i;
	uint16_t buf = 0x0000;
	
	I2C_Start();									//I2C 쫚첕
     e78:	0e 94 22 07 	call	0xe44	; 0xe44 <I2C_Start>
	I2C_Transmit(LDC_ADDR << 1);					//I2C 촸 첲쩉. 쒐 젏왠
     e7c:	86 e5       	ldi	r24, 0x56	; 86
     e7e:	0e 94 28 07 	call	0xe50	; 0xe50 <I2C_Transmit>
	I2C_Transmit(addr);
     e82:	8c 2f       	mov	r24, r28
     e84:	0e 94 28 07 	call	0xe50	; 0xe50 <I2C_Transmit>
	I2C_Stop();	
     e88:	0e 94 36 07 	call	0xe6c	; 0xe6c <I2C_Stop>

	I2C_Start();									//I2C 쫚첕
     e8c:	0e 94 22 07 	call	0xe44	; 0xe44 <I2C_Start>
	I2C_Transmit((LDC_ADDR << 1) + 1);				//I2C 촸 첲쩉. 첋쐑 젏왠
     e90:	87 e5       	ldi	r24, 0x57	; 87
     e92:	0e 94 28 07 	call	0xe50	; 0xe50 <I2C_Transmit>

	for(i=2 ; i>0 ; i--){
		 buf |= (uint16_t)(I2C_Receive()<<(8*(i-1)));
     e96:	0e 94 2f 07 	call	0xe5e	; 0xe5e <I2C_Receive>
     e9a:	d8 2f       	mov	r29, r24
     e9c:	0e 94 2f 07 	call	0xe5e	; 0xe5e <I2C_Receive>
     ea0:	90 e0       	ldi	r25, 0x00	; 0
     ea2:	3d 2f       	mov	r19, r29
     ea4:	20 e0       	ldi	r18, 0x00	; 0
     ea6:	ec 01       	movw	r28, r24
     ea8:	c2 2b       	or	r28, r18
     eaa:	d3 2b       	or	r29, r19
	}
	I2C_Stop();
     eac:	0e 94 36 07 	call	0xe6c	; 0xe6c <I2C_Stop>
	return buf;
}
     eb0:	8c 2f       	mov	r24, r28
     eb2:	9d 2f       	mov	r25, r29
     eb4:	df 91       	pop	r29
     eb6:	cf 91       	pop	r28
     eb8:	08 95       	ret

00000eba <Get_Offset>:
void Set_Offset(uint8_t ch, uint16_t offset){
	Write_Data(offset, OFFSET_CH0 + ch);
}

uint16_t Get_Offset(uint8_t ch){
	return Read_Data(OFFSET_CH0 + ch);
     eba:	84 5f       	subi	r24, 0xF4	; 244
     ebc:	0e 94 39 07 	call	0xe72	; 0xe72 <Read_Data>
}
     ec0:	08 95       	ret

00000ec2 <Get_Data>:
uint16_t Get_Gain(){
	return Read_Data(RESET_DEV);
}

uint16_t Get_Data(uint8_t ch){
	return Read_Data(DATA_CH0_MSB + ch);
     ec2:	0e 94 39 07 	call	0xe72	; 0xe72 <Read_Data>
}
     ec6:	08 95       	ret

00000ec8 <Get_Gain>:
void Set_Gain(uint16_t gain){
	Write_Data(gain, RESET_DEV);
}

uint16_t Get_Gain(){
	return Read_Data(RESET_DEV);
     ec8:	8c e1       	ldi	r24, 0x1C	; 28
     eca:	0e 94 39 07 	call	0xe72	; 0xe72 <Read_Data>
}
     ece:	08 95       	ret

00000ed0 <Get_MUX>:
	mux_data = mux | 0x0208;
	Write_Data(mux_data,MUX_CONFIG);
}

uint16_t Get_MUX(){
	return Read_Data(MUX_CONFIG);
     ed0:	8b e1       	ldi	r24, 0x1B	; 27
     ed2:	0e 94 39 07 	call	0xe72	; 0xe72 <Read_Data>
}
     ed6:	08 95       	ret

00000ed8 <Get_IDreive>:
	tmp = (iDrv << 11) | (init_iDrv << 6);
	Write_Data(tmp,DRIVE_CURRENT_CH0 + ch);
}

uint16_t Get_IDreive(uint8_t ch){
	return Read_Data(DRIVE_CURRENT_CH0 + ch);
     ed8:	82 5e       	subi	r24, 0xE2	; 226
     eda:	0e 94 39 07 	call	0xe72	; 0xe72 <Read_Data>
}
     ede:	08 95       	ret

00000ee0 <Get_RCount>:
void Set_RCount(uint8_t ch, uint16_t rCnt){
	Write_Data(rCnt, RCOUNT_CH0 + ch);
}

uint16_t Get_RCount(uint8_t ch){
	return Read_Data(RCOUNT_CH0 + ch);
     ee0:	88 5f       	subi	r24, 0xF8	; 248
     ee2:	0e 94 39 07 	call	0xe72	; 0xe72 <Read_Data>
}
     ee6:	08 95       	ret

00000ee8 <Get_SettleCount>:
void Set_SettleCount(uint8_t ch, uint16_t settleCnt){
	Write_Data(settleCnt, SETTLECOUNT_CH0 + ch);
}

uint16_t Get_SettleCount(uint8_t ch){
	return Read_Data(SETTLECOUNT_CH0 + ch);
     ee8:	80 5f       	subi	r24, 0xF0	; 240
     eea:	0e 94 39 07 	call	0xe72	; 0xe72 <Read_Data>
}
     eee:	08 95       	ret

00000ef0 <Get_Divider>:

	div = (fin_div<<12) | fref_div;
	Write_Data(div, CLOCK_DEVIDERS_CH0 + ch);
}
uint16_t Get_Divider(uint8_t ch){
	return Read_Data(CLOCK_DEVIDERS_CH0 + ch);
     ef0:	8c 5e       	subi	r24, 0xEC	; 236
     ef2:	0e 94 39 07 	call	0xe72	; 0xe72 <Read_Data>
}
     ef6:	08 95       	ret

00000ef8 <Get_Status>:
uint16_t Get_Error_Config(){
	return Read_Data(ERROR_CONFIG);
}

uint16_t Get_Status(){
	return Read_Data(STATUS);
     ef8:	88 e1       	ldi	r24, 0x18	; 24
     efa:	0e 94 39 07 	call	0xe72	; 0xe72 <Read_Data>
}
     efe:	08 95       	ret

00000f00 <Get_Error_Config>:
void Set_Error_Config(uint16_t err_conf){
	Write_Data(err_conf, ERROR_CONFIG);
}

uint16_t Get_Error_Config(){
	return Read_Data(ERROR_CONFIG);
     f00:	89 e1       	ldi	r24, 0x19	; 25
     f02:	0e 94 39 07 	call	0xe72	; 0xe72 <Read_Data>
}
     f06:	08 95       	ret

00000f08 <Get_Config>:
	conf_data = conf | 0x0001;
	Write_Data(conf_data, CONFIG);
}

uint16_t Get_Config(){
	return Read_Data(CONFIG);
     f08:	8a e1       	ldi	r24, 0x1A	; 26
     f0a:	0e 94 39 07 	call	0xe72	; 0xe72 <Read_Data>
}
     f0e:	08 95       	ret

00000f10 <Write_Data>:
	}
	I2C_Stop();
	return buf;
}

void Write_Data(uint16_t data, uint8_t addr){
     f10:	1f 93       	push	r17
     f12:	cf 93       	push	r28
     f14:	df 93       	push	r29
     f16:	c8 2f       	mov	r28, r24
     f18:	d9 2f       	mov	r29, r25
     f1a:	16 2f       	mov	r17, r22
	uint8_t byte;
	uint8_t i;
	
	I2C_Start();									//I2C 쫚첕 
     f1c:	0e 94 22 07 	call	0xe44	; 0xe44 <I2C_Start>
	I2C_Transmit(LDC_ADDR << 1);					//I2C 촸 첲쩉. 쒐 젏왠
     f20:	86 e5       	ldi	r24, 0x56	; 86
     f22:	0e 94 28 07 	call	0xe50	; 0xe50 <I2C_Transmit>
	I2C_Transmit(addr);
     f26:	81 2f       	mov	r24, r17
     f28:	0e 94 28 07 	call	0xe50	; 0xe50 <I2C_Transmit>
	for(i=2 ; i>0 ; i--){
		byte = (uint8_t)((data >> (8*(i-1)))&0x00ff);
		I2C_Transmit(byte);							//I2C 온첇콼 첲쩉
     f2c:	8d 2f       	mov	r24, r29
     f2e:	0e 94 28 07 	call	0xe50	; 0xe50 <I2C_Transmit>
     f32:	8c 2f       	mov	r24, r28
     f34:	0e 94 28 07 	call	0xe50	; 0xe50 <I2C_Transmit>
	}
	I2C_Stop();										//I2C 쭹
     f38:	0e 94 36 07 	call	0xe6c	; 0xe6c <I2C_Stop>
     f3c:	df 91       	pop	r29
     f3e:	cf 91       	pop	r28
     f40:	1f 91       	pop	r17
     f42:	08 95       	ret

00000f44 <Reset_Device>:
uint16_t Get_Offset(uint8_t ch){
	return Read_Data(OFFSET_CH0 + ch);
}

void Reset_Device(){
	Write_Data(0x8000, RESET_DEV);
     f44:	80 e0       	ldi	r24, 0x00	; 0
     f46:	90 e8       	ldi	r25, 0x80	; 128
     f48:	6c e1       	ldi	r22, 0x1C	; 28
     f4a:	0e 94 88 07 	call	0xf10	; 0xf10 <Write_Data>
}
     f4e:	08 95       	ret

00000f50 <Set_Offset>:

uint16_t Get_Data(uint8_t ch){
	return Read_Data(DATA_CH0_MSB + ch);
}

void Set_Offset(uint8_t ch, uint16_t offset){
     f50:	9b 01       	movw	r18, r22
	Write_Data(offset, OFFSET_CH0 + ch);
     f52:	68 2f       	mov	r22, r24
     f54:	64 5f       	subi	r22, 0xF4	; 244
     f56:	c9 01       	movw	r24, r18
     f58:	0e 94 88 07 	call	0xf10	; 0xf10 <Write_Data>
}
     f5c:	08 95       	ret

00000f5e <Set_Gain>:
uint16_t Get_MUX(){
	return Read_Data(MUX_CONFIG);
}

void Set_Gain(uint16_t gain){
	Write_Data(gain, RESET_DEV);
     f5e:	6c e1       	ldi	r22, 0x1C	; 28
     f60:	0e 94 88 07 	call	0xf10	; 0xf10 <Write_Data>
}
     f64:	08 95       	ret

00000f66 <Set_MUX>:

void Set_MUX(uint16_t mux){
	uint16_t mux_data;

	mux_data = mux | 0x0208;
	Write_Data(mux_data,MUX_CONFIG);
     f66:	88 60       	ori	r24, 0x08	; 8
     f68:	92 60       	ori	r25, 0x02	; 2
     f6a:	6b e1       	ldi	r22, 0x1B	; 27
     f6c:	0e 94 88 07 	call	0xf10	; 0xf10 <Write_Data>
}
     f70:	08 95       	ret

00000f72 <Set_IDrive>:
	return Read_Data(RCOUNT_CH0 + ch);
}

void Set_IDrive(uint8_t ch, uint16_t iDrv, uint16_t init_iDrv){
	uint16_t tmp;
	tmp = (iDrv << 11) | (init_iDrv << 6);
     f72:	00 24       	eor	r0, r0
     f74:	56 95       	lsr	r21
     f76:	47 95       	ror	r20
     f78:	07 94       	ror	r0
     f7a:	56 95       	lsr	r21
     f7c:	47 95       	ror	r20
     f7e:	07 94       	ror	r0
     f80:	54 2f       	mov	r21, r20
     f82:	40 2d       	mov	r20, r0
     f84:	36 2f       	mov	r19, r22
     f86:	33 0f       	add	r19, r19
     f88:	33 0f       	add	r19, r19
     f8a:	33 0f       	add	r19, r19
     f8c:	20 e0       	ldi	r18, 0x00	; 0
	Write_Data(tmp,DRIVE_CURRENT_CH0 + ch);
     f8e:	68 2f       	mov	r22, r24
     f90:	62 5e       	subi	r22, 0xE2	; 226
     f92:	ca 01       	movw	r24, r20
     f94:	82 2b       	or	r24, r18
     f96:	93 2b       	or	r25, r19
     f98:	0e 94 88 07 	call	0xf10	; 0xf10 <Write_Data>
}
     f9c:	08 95       	ret

00000f9e <Set_RCount>:
}

uint16_t Get_SettleCount(uint8_t ch){
	return Read_Data(SETTLECOUNT_CH0 + ch);
}
void Set_RCount(uint8_t ch, uint16_t rCnt){
     f9e:	9b 01       	movw	r18, r22
	Write_Data(rCnt, RCOUNT_CH0 + ch);
     fa0:	68 2f       	mov	r22, r24
     fa2:	68 5f       	subi	r22, 0xF8	; 248
     fa4:	c9 01       	movw	r24, r18
     fa6:	0e 94 88 07 	call	0xf10	; 0xf10 <Write_Data>
}
     faa:	08 95       	ret

00000fac <Set_SettleCount>:
}
uint16_t Get_Divider(uint8_t ch){
	return Read_Data(CLOCK_DEVIDERS_CH0 + ch);
}

void Set_SettleCount(uint8_t ch, uint16_t settleCnt){
     fac:	9b 01       	movw	r18, r22
	Write_Data(settleCnt, SETTLECOUNT_CH0 + ch);
     fae:	68 2f       	mov	r22, r24
     fb0:	60 5f       	subi	r22, 0xF0	; 240
     fb2:	c9 01       	movw	r24, r18
     fb4:	0e 94 88 07 	call	0xf10	; 0xf10 <Write_Data>
}
     fb8:	08 95       	ret

00000fba <Set_Divider>:
}

void Set_Divider(uint8_t ch, uint16_t fin_div, uint16_t fref_div){
	uint16_t div;

	div = (fin_div<<12) | fref_div;
     fba:	36 2f       	mov	r19, r22
     fbc:	32 95       	swap	r19
     fbe:	30 7f       	andi	r19, 0xF0	; 240
     fc0:	20 e0       	ldi	r18, 0x00	; 0
	Write_Data(div, CLOCK_DEVIDERS_CH0 + ch);
     fc2:	68 2f       	mov	r22, r24
     fc4:	6c 5e       	subi	r22, 0xEC	; 236
     fc6:	ca 01       	movw	r24, r20
     fc8:	82 2b       	or	r24, r18
     fca:	93 2b       	or	r25, r19
     fcc:	0e 94 88 07 	call	0xf10	; 0xf10 <Write_Data>
}
     fd0:	08 95       	ret

00000fd2 <Set_Error_Config>:
uint16_t Get_Config(){
	return Read_Data(CONFIG);
}

void Set_Error_Config(uint16_t err_conf){
	Write_Data(err_conf, ERROR_CONFIG);
     fd2:	69 e1       	ldi	r22, 0x19	; 25
     fd4:	0e 94 88 07 	call	0xf10	; 0xf10 <Write_Data>
}
     fd8:	08 95       	ret

00000fda <Set_Config>:

void Set_Config(uint16_t conf){
	uint16_t conf_data;
	
	conf_data = conf | 0x0001;
	Write_Data(conf_data, CONFIG);
     fda:	81 60       	ori	r24, 0x01	; 1
     fdc:	6a e1       	ldi	r22, 0x1A	; 26
     fde:	0e 94 88 07 	call	0xf10	; 0xf10 <Write_Data>
}
     fe2:	08 95       	ret

00000fe4 <SleepMode_Control>:
#include "../GLCD/SPLC501C.h"

	char TEST_LCD[20];
#endif

void SleepMode_Control(uint16_t mode){
     fe4:	cf 93       	push	r28
     fe6:	df 93       	push	r29
     fe8:	ec 01       	movw	r28, r24
	uint16_t tmp;

	tmp = Read_Data(CONFIG);
     fea:	8a e1       	ldi	r24, 0x1A	; 26
     fec:	0e 94 39 07 	call	0xe72	; 0xe72 <Read_Data>

	if(mode == SLEEP_MODE_EN)
     ff0:	20 e2       	ldi	r18, 0x20	; 32
     ff2:	c0 30       	cpi	r28, 0x00	; 0
     ff4:	d2 07       	cpc	r29, r18
     ff6:	21 f4       	brne	.+8      	; 0x1000 <SleepMode_Control+0x1c>
		Set_Config(tmp|SLEEP_MODE_EN);
     ff8:	90 62       	ori	r25, 0x20	; 32
     ffa:	0e 94 ed 07 	call	0xfda	; 0xfda <Set_Config>
     ffe:	03 c0       	rjmp	.+6      	; 0x1006 <SleepMode_Control+0x22>
	else
		Set_Config(tmp&~SLEEP_MODE_EN);
    1000:	9f 7d       	andi	r25, 0xDF	; 223
    1002:	0e 94 ed 07 	call	0xfda	; 0xfda <Set_Config>
}
    1006:	df 91       	pop	r29
    1008:	cf 91       	pop	r28
    100a:	08 95       	ret

0000100c <Gain_Setting>:
	Set_Offset(CH0,offset);
	SleepMode_Control(SLEEP_MODE_DIS);
	_delay_ms(100);
}

void Gain_Setting(uint16_t gain){
    100c:	cf 93       	push	r28
    100e:	df 93       	push	r29
    1010:	ec 01       	movw	r28, r24
	SleepMode_Control(SLEEP_MODE_EN);
    1012:	80 e0       	ldi	r24, 0x00	; 0
    1014:	90 e2       	ldi	r25, 0x20	; 32
    1016:	0e 94 f2 07 	call	0xfe4	; 0xfe4 <SleepMode_Control>
    101a:	83 ec       	ldi	r24, 0xC3	; 195
    101c:	99 e0       	ldi	r25, 0x09	; 9
    101e:	01 97       	sbiw	r24, 0x01	; 1
    1020:	f1 f7       	brne	.-4      	; 0x101e <Gain_Setting+0x12>
    1022:	00 c0       	rjmp	.+0      	; 0x1024 <Gain_Setting+0x18>
    1024:	00 00       	nop
	_delay_ms(10);
	Set_Gain(gain);
    1026:	ce 01       	movw	r24, r28
    1028:	0e 94 af 07 	call	0xf5e	; 0xf5e <Set_Gain>
	SleepMode_Control(SLEEP_MODE_DIS);
    102c:	80 e0       	ldi	r24, 0x00	; 0
    102e:	90 e0       	ldi	r25, 0x00	; 0
    1030:	0e 94 f2 07 	call	0xfe4	; 0xfe4 <SleepMode_Control>
    1034:	87 ea       	ldi	r24, 0xA7	; 167
    1036:	91 e6       	ldi	r25, 0x61	; 97
    1038:	01 97       	sbiw	r24, 0x01	; 1
    103a:	f1 f7       	brne	.-4      	; 0x1038 <Gain_Setting+0x2c>
    103c:	00 c0       	rjmp	.+0      	; 0x103e <Gain_Setting+0x32>
    103e:	00 00       	nop
	_delay_ms(100);
}
    1040:	df 91       	pop	r29
    1042:	cf 91       	pop	r28
    1044:	08 95       	ret

00001046 <Offset_Setting>:

void Reset_Device(){
	Write_Data(0x8000, RESET_DEV);
}

void Offset_Setting(uint8_t ch, uint16_t offset){
    1046:	cf 93       	push	r28
    1048:	df 93       	push	r29
    104a:	eb 01       	movw	r28, r22
	SleepMode_Control(SLEEP_MODE_EN);
    104c:	80 e0       	ldi	r24, 0x00	; 0
    104e:	90 e2       	ldi	r25, 0x20	; 32
    1050:	0e 94 f2 07 	call	0xfe4	; 0xfe4 <SleepMode_Control>
    1054:	83 ec       	ldi	r24, 0xC3	; 195
    1056:	99 e0       	ldi	r25, 0x09	; 9
    1058:	01 97       	sbiw	r24, 0x01	; 1
    105a:	f1 f7       	brne	.-4      	; 0x1058 <Offset_Setting+0x12>
    105c:	00 c0       	rjmp	.+0      	; 0x105e <Offset_Setting+0x18>
    105e:	00 00       	nop
	_delay_ms(10);
	Set_Offset(CH0,offset);
    1060:	80 e0       	ldi	r24, 0x00	; 0
    1062:	be 01       	movw	r22, r28
    1064:	0e 94 a8 07 	call	0xf50	; 0xf50 <Set_Offset>
	SleepMode_Control(SLEEP_MODE_DIS);
    1068:	80 e0       	ldi	r24, 0x00	; 0
    106a:	90 e0       	ldi	r25, 0x00	; 0
    106c:	0e 94 f2 07 	call	0xfe4	; 0xfe4 <SleepMode_Control>
    1070:	87 ea       	ldi	r24, 0xA7	; 167
    1072:	91 e6       	ldi	r25, 0x61	; 97
    1074:	01 97       	sbiw	r24, 0x01	; 1
    1076:	f1 f7       	brne	.-4      	; 0x1074 <Offset_Setting+0x2e>
    1078:	00 c0       	rjmp	.+0      	; 0x107a <Offset_Setting+0x34>
    107a:	00 00       	nop
	_delay_ms(100);
}
    107c:	df 91       	pop	r29
    107e:	cf 91       	pop	r28
    1080:	08 95       	ret

00001082 <LDC_Init>:
		Set_Config(tmp|SLEEP_MODE_EN);
	else
		Set_Config(tmp&~SLEEP_MODE_EN);
}

void LDC_Init(uint16_t offset){
    1082:	cf 93       	push	r28
    1084:	df 93       	push	r29
    1086:	ec 01       	movw	r28, r24
	I2C_Init();													//I2C Init
    1088:	0e 94 1c 07 	call	0xe38	; 0xe38 <I2C_Init>
	SleepMode_Control(SLEEP_MODE_EN);							//쨥촋 첲 쫗쟙젏왠 쫚첕
    108c:	80 e0       	ldi	r24, 0x00	; 0
    108e:	90 e2       	ldi	r25, 0x20	; 32
    1090:	0e 94 f2 07 	call	0xfe4	; 0xfe4 <SleepMode_Control>
	//칛 좡 콟잃 쨥촋
	Set_Config(ACTIVE_CHAN_CH0|RP_OVERRIDE_EN|SENSOR_ACTIVATE_LOW|AUTO_AMP_DIS|REF_CLK_SRC_IN|INTB_EN|HIGH_CURRENT_DRV_DIS);
    1094:	80 e0       	ldi	r24, 0x00	; 0
    1096:	9c e1       	ldi	r25, 0x1C	; 28
    1098:	0e 94 ed 07 	call	0xfda	; 0xfda <Set_Config>
	Set_Divider(CH0, FIN_DIVIDER, FREF_DIVIDER);				//콟잃 쥃좯 쨥촋 FIN_DIVIDER = 0x0002, FREF_DIVIDER = 0x000A
    109c:	80 e0       	ldi	r24, 0x00	; 0
    109e:	62 e0       	ldi	r22, 0x02	; 2
    10a0:	70 e0       	ldi	r23, 0x00	; 0
    10a2:	44 e0       	ldi	r20, 0x04	; 4
    10a4:	50 e0       	ldi	r21, 0x00	; 0
    10a6:	0e 94 dd 07 	call	0xfba	; 0xfba <Set_Divider>
	Set_RCount(CH0, RCOUNT);									//줦턆 쫚쌲 쨥촋 RCount  = 0x04d6
    10aa:	80 e0       	ldi	r24, 0x00	; 0
    10ac:	66 ed       	ldi	r22, 0xD6	; 214
    10ae:	74 e0       	ldi	r23, 0x04	; 4
    10b0:	0e 94 cf 07 	call	0xf9e	; 0xf9e <Set_RCount>
	Set_SettleCount(CH0,SETTLECOUNT);							//쮇촋턄 쫚쌲 쨥촋Settle Count = 0x000A
    10b4:	80 e0       	ldi	r24, 0x00	; 0
    10b6:	6a e0       	ldi	r22, 0x0A	; 10
    10b8:	70 e0       	ldi	r23, 0x00	; 0
    10ba:	0e 94 d6 07 	call	0xfac	; 0xfac <Set_SettleCount>
	//챵 줮썴 턆썭 쨥촋
	Set_Error_Config(UR_ERR2OUT_DIS|OR_ERR2OUT_DIS|WD_ERR2OUT_EN|AH_ERR2OUT_DIS|AL_ERR2OUT_DIS
    10be:	80 e2       	ldi	r24, 0x20	; 32
    10c0:	90 e2       	ldi	r25, 0x20	; 32
    10c2:	0e 94 e9 07 	call	0xfd2	; 0xfd2 <Set_Error_Config>
						|UR_ERR2INT_DIS|OR_ERR2INT_DIS|WD_ERR2INT_EN|AH_ERR2INT_DIS|AL_ERR2INT_DIS|ZC_ERR2INT_DIS|DRDY_2INT_DIS);
	Set_MUX(DEGHITCH_3R3M);										//칛 첕 쨥촋
    10c6:	84 e0       	ldi	r24, 0x04	; 4
    10c8:	90 e0       	ldi	r25, 0x00	; 0
    10ca:	0e 94 b3 07 	call	0xf66	; 0xf66 <Set_MUX>
	Set_IDrive(CH0,18,0);										//쏮 첲 쨥촋
    10ce:	80 e0       	ldi	r24, 0x00	; 0
    10d0:	62 e1       	ldi	r22, 0x12	; 18
    10d2:	70 e0       	ldi	r23, 0x00	; 0
    10d4:	40 e0       	ldi	r20, 0x00	; 0
    10d6:	50 e0       	ldi	r21, 0x00	; 0
    10d8:	0e 94 b9 07 	call	0xf72	; 0xf72 <Set_IDrive>
	//Set_Gain(gain);												//狗 첇왡 쨥촋
	if(offset != 0xFFFF) Set_Offset(CH0,offset);
    10dc:	8f ef       	ldi	r24, 0xFF	; 255
    10de:	cf 3f       	cpi	r28, 0xFF	; 255
    10e0:	d8 07       	cpc	r29, r24
    10e2:	21 f0       	breq	.+8      	; 0x10ec <LDC_Init+0x6a>
    10e4:	80 e0       	ldi	r24, 0x00	; 0
    10e6:	be 01       	movw	r22, r28
    10e8:	0e 94 a8 07 	call	0xf50	; 0xf50 <Set_Offset>
	SleepMode_Control(SLEEP_MODE_DIS);
    10ec:	80 e0       	ldi	r24, 0x00	; 0
    10ee:	90 e0       	ldi	r25, 0x00	; 0
    10f0:	0e 94 f2 07 	call	0xfe4	; 0xfe4 <SleepMode_Control>
}
    10f4:	df 91       	pop	r29
    10f6:	cf 91       	pop	r28
    10f8:	08 95       	ret

000010fa <DIO_Initialize>:
//              *******Functions*******                     //
//////////////////////////////////////////////////////////////

//DIO Initialize
void DIO_Initialize(){
	DDRA = 0b00100111;			// PA7 : MODE2 				(INPUT)
    10fa:	87 e2       	ldi	r24, 0x27	; 39
    10fc:	8a bb       	out	0x1a, r24	; 26
								// PA3 : AD5421 - SDO 		(INPUT)
								// PA2 : AD5421 - SDI 		(OUTPUT)
								// PA1 : AD5421 - SCLK 		(OUTPUT)
								// PA0 : AD5421 - /SYNC 	(OUTPUT)
								
	DDRB = 0b11111111;			// PB7 : ISP - SCK			(OUTPUT)
    10fe:	8f ef       	ldi	r24, 0xFF	; 255
    1100:	87 bb       	out	0x17, r24	; 23
								// PB3 : N.C.
								// PB2 : N.C.
								// PB1 : N.C.
								// PB0 : N.C.

	DDRC = 0b00000111;			// PC7 : BUTTON - ENTER		(INPUT)
    1102:	87 e0       	ldi	r24, 0x07	; 7
    1104:	84 bb       	out	0x14, r24	; 20
								// PC3 : N.C.
								// PC2 : LDC - SD			(OUTPUT)
								// PC1 : LDC - SDA			(I2C-OUTPUT)
								// PC0 : LDC - SCL			(I2C-OUTPUT)	

	DDRD = 0b11111010;			// PB7 : LCD - SI			(OUTPUT)
    1106:	8a ef       	ldi	r24, 0xFA	; 250
    1108:	81 bb       	out	0x11, r24	; 17
								// PB3 : LCD - /CS			(OUTPUT)
								// PB2 : LDC - INTB			(INPUT)
								// PB1 : UART - TXD			(OUTPUT)
								// PB0 : UART - RXD			(INPUT)	

	PORTA = 0x00;
    110a:	1b ba       	out	0x1b, r1	; 27
	PORTB = 0x00;
    110c:	18 ba       	out	0x18, r1	; 24
	PORTC = 0x03;
    110e:	83 e0       	ldi	r24, 0x03	; 3
    1110:	85 bb       	out	0x15, r24	; 21
	PORTD = 0x10;
    1112:	80 e1       	ldi	r24, 0x10	; 16
    1114:	82 bb       	out	0x12, r24	; 18

	//LDC1312 Shutdown 
	SETBIT(PORTC,PC2);
    1116:	aa 9a       	sbi	0x15, 2	; 21
    1118:	83 ec       	ldi	r24, 0xC3	; 195
    111a:	99 e0       	ldi	r25, 0x09	; 9
    111c:	01 97       	sbiw	r24, 0x01	; 1
    111e:	f1 f7       	brne	.-4      	; 0x111c <DIO_Initialize+0x22>
    1120:	00 c0       	rjmp	.+0      	; 0x1122 <DIO_Initialize+0x28>
    1122:	00 00       	nop
	_delay_ms(10);
	CLEARBIT(PORTC,PC2);
    1124:	aa 98       	cbi	0x15, 2	; 21
    1126:	83 ec       	ldi	r24, 0xC3	; 195
    1128:	99 e0       	ldi	r25, 0x09	; 9
    112a:	01 97       	sbiw	r24, 0x01	; 1
    112c:	f1 f7       	brne	.-4      	; 0x112a <DIO_Initialize+0x30>
    112e:	00 c0       	rjmp	.+0      	; 0x1130 <DIO_Initialize+0x36>
    1130:	00 00       	nop
	_delay_ms(10);
}
    1132:	08 95       	ret

00001134 <Interrupt_Initialize>:

void Interrupt_Initialize(){
	GICR |= (1 << INT0);
    1134:	8b b7       	in	r24, 0x3b	; 59
    1136:	80 64       	ori	r24, 0x40	; 64
    1138:	8b bf       	out	0x3b, r24	; 59
	MCUCR |= (1 << ISC00);
    113a:	85 b7       	in	r24, 0x35	; 53
    113c:	81 60       	ori	r24, 0x01	; 1
    113e:	85 bf       	out	0x35, r24	; 53
	sei();
    1140:	78 94       	sei
}
    1142:	08 95       	ret

00001144 <WatchDog_Initialize>:

void WatchDog_Initialize(){
	wdt_enable(WDTO_2S);
    1144:	2f e0       	ldi	r18, 0x0F	; 15
    1146:	88 e1       	ldi	r24, 0x18	; 24
    1148:	90 e0       	ldi	r25, 0x00	; 0
    114a:	0f b6       	in	r0, 0x3f	; 63
    114c:	f8 94       	cli
    114e:	a8 95       	wdr
    1150:	80 93 41 00 	sts	0x0041, r24
    1154:	0f be       	out	0x3f, r0	; 63
    1156:	20 93 41 00 	sts	0x0041, r18
}
    115a:	08 95       	ret

0000115c <UART_Initialize>:

//UART Initialize
void UART_Initialize(){

}
    115c:	08 95       	ret

0000115e <Get_System_Mode>:

//System Mode Switch Check
uint8_t Get_System_Mode(){
	uint8_t sw = GLCD_MODE;
	sw = PINA & 0xC0;
    115e:	89 b3       	in	r24, 0x19	; 25
	return sw;
}
    1160:	80 7c       	andi	r24, 0xC0	; 192
    1162:	08 95       	ret

00001164 <LCD_DefaultScreen>:

//LCD 쐑줱 턄절 챹 윊
void LCD_DefaultScreen(char* title, char* menu1, char* menu2, char* menu3, char* menu4){
    1164:	af 92       	push	r10
    1166:	bf 92       	push	r11
    1168:	cf 92       	push	r12
    116a:	df 92       	push	r13
    116c:	ef 92       	push	r14
    116e:	ff 92       	push	r15
    1170:	0f 93       	push	r16
    1172:	1f 93       	push	r17
    1174:	cf 93       	push	r28
    1176:	df 93       	push	r29
    1178:	ec 01       	movw	r28, r24
    117a:	7b 01       	movw	r14, r22
    117c:	6a 01       	movw	r12, r20
    117e:	59 01       	movw	r10, r18
	GLCD_GoTo(16, 0);
    1180:	80 e1       	ldi	r24, 0x10	; 16
    1182:	60 e0       	ldi	r22, 0x00	; 0
    1184:	0e 94 81 05 	call	0xb02	; 0xb02 <GLCD_GoTo>
	GLCD_WriteString5x7(title);
    1188:	ce 01       	movw	r24, r28
    118a:	0e 94 f6 05 	call	0xbec	; 0xbec <GLCD_WriteString5x7>
	GLCD_GoTo(8,7);
    118e:	88 e0       	ldi	r24, 0x08	; 8
    1190:	67 e0       	ldi	r22, 0x07	; 7
    1192:	0e 94 81 05 	call	0xb02	; 0xb02 <GLCD_GoTo>
	GLCD_WriteString5x7(menu1);
    1196:	c7 01       	movw	r24, r14
    1198:	0e 94 f6 05 	call	0xbec	; 0xbec <GLCD_WriteString5x7>
	GLCD_GoTo(50,7);
    119c:	82 e3       	ldi	r24, 0x32	; 50
    119e:	67 e0       	ldi	r22, 0x07	; 7
    11a0:	0e 94 81 05 	call	0xb02	; 0xb02 <GLCD_GoTo>
	GLCD_WriteString5x7(menu2);
    11a4:	c6 01       	movw	r24, r12
    11a6:	0e 94 f6 05 	call	0xbec	; 0xbec <GLCD_WriteString5x7>
	GLCD_GoTo(70,7);
    11aa:	86 e4       	ldi	r24, 0x46	; 70
    11ac:	67 e0       	ldi	r22, 0x07	; 7
    11ae:	0e 94 81 05 	call	0xb02	; 0xb02 <GLCD_GoTo>
	GLCD_WriteString5x7(menu3);
    11b2:	c5 01       	movw	r24, r10
    11b4:	0e 94 f6 05 	call	0xbec	; 0xbec <GLCD_WriteString5x7>
	GLCD_GoTo(105,7);
    11b8:	89 e6       	ldi	r24, 0x69	; 105
    11ba:	67 e0       	ldi	r22, 0x07	; 7
    11bc:	0e 94 81 05 	call	0xb02	; 0xb02 <GLCD_GoTo>
	GLCD_WriteString5x7(menu4);
    11c0:	c8 01       	movw	r24, r16
    11c2:	0e 94 f6 05 	call	0xbec	; 0xbec <GLCD_WriteString5x7>
	
	GLCD_Line(0,8,132,8);
    11c6:	80 e0       	ldi	r24, 0x00	; 0
    11c8:	90 e0       	ldi	r25, 0x00	; 0
    11ca:	68 e0       	ldi	r22, 0x08	; 8
    11cc:	70 e0       	ldi	r23, 0x00	; 0
    11ce:	44 e8       	ldi	r20, 0x84	; 132
    11d0:	50 e0       	ldi	r21, 0x00	; 0
    11d2:	28 e0       	ldi	r18, 0x08	; 8
    11d4:	30 e0       	ldi	r19, 0x00	; 0
    11d6:	0e 94 5f 04 	call	0x8be	; 0x8be <GLCD_Line>
	GLCD_Line(0,54,132,54);	
    11da:	80 e0       	ldi	r24, 0x00	; 0
    11dc:	90 e0       	ldi	r25, 0x00	; 0
    11de:	66 e3       	ldi	r22, 0x36	; 54
    11e0:	70 e0       	ldi	r23, 0x00	; 0
    11e2:	44 e8       	ldi	r20, 0x84	; 132
    11e4:	50 e0       	ldi	r21, 0x00	; 0
    11e6:	26 e3       	ldi	r18, 0x36	; 54
    11e8:	30 e0       	ldi	r19, 0x00	; 0
    11ea:	0e 94 5f 04 	call	0x8be	; 0x8be <GLCD_Line>
}
    11ee:	df 91       	pop	r29
    11f0:	cf 91       	pop	r28
    11f2:	1f 91       	pop	r17
    11f4:	0f 91       	pop	r16
    11f6:	ff 90       	pop	r15
    11f8:	ef 90       	pop	r14
    11fa:	df 90       	pop	r13
    11fc:	cf 90       	pop	r12
    11fe:	bf 90       	pop	r11
    1200:	af 90       	pop	r10
    1202:	08 95       	ret

00001204 <System_Mode_Check>:
//////////////////////////////////////////////////////////////
//             *******MAIN Functions*******                 //
//////////////////////////////////////////////////////////////
//젏왠쟍 턅첉찔 얺 점찌 얾 퉘邱 쵖 
void System_Mode_Check(){
	sysMode = Get_System_Mode();
    1204:	0e 94 af 08 	call	0x115e	; 0x115e <Get_System_Mode>
    1208:	80 93 1e 02 	sts	0x021E, r24
	switch(sysMode){
    120c:	80 3c       	cpi	r24, 0xC0	; 192
    120e:	49 f4       	brne	.+18     	; 0x1222 <System_Mode_Check+0x1e>
		case GLCD_MODE:
			GLCD_Initialize();
    1210:	0e 94 4b 05 	call	0xa96	; 0xa96 <GLCD_Initialize>
			GLCD_ClearScreen();
    1214:	0e 94 99 05 	call	0xb32	; 0xb32 <GLCD_ClearScreen>
			GLCD_WriteCommand(SPLC501C_VOLTAGE_RATIO | lcd_contract);
    1218:	80 91 71 02 	lds	r24, 0x0271
    121c:	80 62       	ori	r24, 0x20	; 32
    121e:	0e 94 37 05 	call	0xa6e	; 0xa6e <GLCD_WriteCommand>
    1222:	08 95       	ret

00001224 <Read_Eeprom>:
//		eeprom_update_word((uint16_t*)((i+1)*5), freq[i]);
//	}
//}

//EEPROM 첋쐑(퉘臼 홏 쨮퀚턄절찌쨠 쥪촕씱칬 홏)
void Read_Eeprom(){
    1224:	0f 93       	push	r16
    1226:	1f 93       	push	r17
    1228:	cf 93       	push	r28
    122a:	df 93       	push	r29
    122c:	0c e3       	ldi	r16, 0x3C	; 60
    122e:	12 e0       	ldi	r17, 0x02	; 2
    1230:	c5 e0       	ldi	r28, 0x05	; 5
    1232:	d0 e0       	ldi	r29, 0x00	; 0
	uint8_t i;
	for(i=0 ; i< LDC_LENGTH; i++){
		ldc[i] = eeprom_read_dword((uint32_t*)((i+1)*5));
    1234:	ce 01       	movw	r24, r28
    1236:	0e 94 5f 19 	call	0x32be	; 0x32be <__eerd_dword_m32a>
    123a:	dc 01       	movw	r26, r24
    123c:	cb 01       	movw	r24, r22
    123e:	f8 01       	movw	r30, r16
    1240:	81 93       	st	Z+, r24
    1242:	91 93       	st	Z+, r25
    1244:	a1 93       	st	Z+, r26
    1246:	b1 93       	st	Z+, r27
    1248:	8f 01       	movw	r16, r30
    124a:	25 96       	adiw	r28, 0x05	; 5
//}

//EEPROM 첋쐑(퉘臼 홏 쨮퀚턄절찌쨠 쥪촕씱칬 홏)
void Read_Eeprom(){
	uint8_t i;
	for(i=0 ; i< LDC_LENGTH; i++){
    124c:	cc 33       	cpi	r28, 0x3C	; 60
    124e:	d1 05       	cpc	r29, r1
    1250:	89 f7       	brne	.-30     	; 0x1234 <Read_Eeprom+0x10>
		ldc[i] = eeprom_read_dword((uint32_t*)((i+1)*5));
	}
	lcd_contract = eeprom_read_byte((uint8_t*)((LDC_LENGTH+1)*5));
    1252:	8c e3       	ldi	r24, 0x3C	; 60
    1254:	90 e0       	ldi	r25, 0x00	; 0
    1256:	0e 94 57 19 	call	0x32ae	; 0x32ae <__eerd_byte_m32a>
    125a:	80 93 71 02 	sts	0x0271, r24
	offset = eeprom_read_word((uint16_t*)((LDC_LENGTH+3)*5));
    125e:	86 e4       	ldi	r24, 0x46	; 70
    1260:	90 e0       	ldi	r25, 0x00	; 0
    1262:	0e 94 65 19 	call	0x32ca	; 0x32ca <__eerd_word_m32a>
    1266:	90 93 77 02 	sts	0x0277, r25
    126a:	80 93 76 02 	sts	0x0276, r24
	//gain = eeprom_read_word((uint16_t*)((LDC_LENGTH+2)*5));
}
    126e:	df 91       	pop	r29
    1270:	cf 91       	pop	r28
    1272:	1f 91       	pop	r17
    1274:	0f 91       	pop	r16
    1276:	08 95       	ret

00001278 <AD5421_Output>:

//첲 狗(3.8~21mA)
void AD5421_Output(float CurrValue){
    1278:	cf 92       	push	r12
    127a:	df 92       	push	r13
    127c:	ef 92       	push	r14
    127e:	ff 92       	push	r15
    1280:	6b 01       	movw	r12, r22
    1282:	7c 01       	movw	r14, r24
	double OutCurrent = 0.0f;
	float Min_mA = 3.8f;
   	float Max_mA = 21.0f;
	
	//if (LRV_Data == 0) CurrValue = 3.9;
   	if (CurrValue < Min_mA) { CurrValue = Min_mA; }
    1284:	23 e3       	ldi	r18, 0x33	; 51
    1286:	33 e3       	ldi	r19, 0x33	; 51
    1288:	43 e7       	ldi	r20, 0x73	; 115
    128a:	50 e4       	ldi	r21, 0x40	; 64
    128c:	0e 94 73 15 	call	0x2ae6	; 0x2ae6 <__cmpsf2>
    1290:	88 23       	and	r24, r24
    1292:	5c f0       	brlt	.+22     	; 0x12aa <AD5421_Output+0x32>
   	if (CurrValue >= Max_mA) { CurrValue = Max_mA; }
    1294:	c7 01       	movw	r24, r14
    1296:	b6 01       	movw	r22, r12
    1298:	20 e0       	ldi	r18, 0x00	; 0
    129a:	30 e0       	ldi	r19, 0x00	; 0
    129c:	48 ea       	ldi	r20, 0xA8	; 168
    129e:	51 e4       	ldi	r21, 0x41	; 65
    12a0:	0e 94 bd 16 	call	0x2d7a	; 0x2d7a <__gesf2>
    12a4:	88 23       	and	r24, r24
    12a6:	64 f4       	brge	.+24     	; 0x12c0 <AD5421_Output+0x48>
    12a8:	15 c0       	rjmp	.+42     	; 0x12d4 <AD5421_Output+0x5c>
	double OutCurrent = 0.0f;
	float Min_mA = 3.8f;
   	float Max_mA = 21.0f;
	
	//if (LRV_Data == 0) CurrValue = 3.9;
   	if (CurrValue < Min_mA) { CurrValue = Min_mA; }
    12aa:	0f 2e       	mov	r0, r31
    12ac:	f3 e3       	ldi	r31, 0x33	; 51
    12ae:	cf 2e       	mov	r12, r31
    12b0:	f3 e3       	ldi	r31, 0x33	; 51
    12b2:	df 2e       	mov	r13, r31
    12b4:	f3 e7       	ldi	r31, 0x73	; 115
    12b6:	ef 2e       	mov	r14, r31
    12b8:	f0 e4       	ldi	r31, 0x40	; 64
    12ba:	ff 2e       	mov	r15, r31
    12bc:	f0 2d       	mov	r31, r0
    12be:	0a c0       	rjmp	.+20     	; 0x12d4 <AD5421_Output+0x5c>
   	if (CurrValue >= Max_mA) { CurrValue = Max_mA; }
    12c0:	0f 2e       	mov	r0, r31
    12c2:	f0 e0       	ldi	r31, 0x00	; 0
    12c4:	cf 2e       	mov	r12, r31
    12c6:	f0 e0       	ldi	r31, 0x00	; 0
    12c8:	df 2e       	mov	r13, r31
    12ca:	f8 ea       	ldi	r31, 0xA8	; 168
    12cc:	ef 2e       	mov	r14, r31
    12ce:	f1 e4       	ldi	r31, 0x41	; 65
    12d0:	ff 2e       	mov	r15, r31
    12d2:	f0 2d       	mov	r31, r0

   	// Min_mA ~ Max_mA Range Output
   	Cur_Per1 = ((CurrValue - Min_mA) / (Max_mA - Min_mA));
    12d4:	c7 01       	movw	r24, r14
    12d6:	b6 01       	movw	r22, r12
    12d8:	23 e3       	ldi	r18, 0x33	; 51
    12da:	33 e3       	ldi	r19, 0x33	; 51
    12dc:	43 e7       	ldi	r20, 0x73	; 115
    12de:	50 e4       	ldi	r21, 0x40	; 64
    12e0:	0e 94 0e 15 	call	0x2a1c	; 0x2a1c <__subsf3>
    12e4:	2a e9       	ldi	r18, 0x9A	; 154
    12e6:	39 e9       	ldi	r19, 0x99	; 153
    12e8:	49 e8       	ldi	r20, 0x89	; 137
    12ea:	51 e4       	ldi	r21, 0x41	; 65
    12ec:	0e 94 77 15 	call	0x2aee	; 0x2aee <__divsf3>
   	OutCurrent = 65535 * Cur_Per1;
    12f0:	20 e0       	ldi	r18, 0x00	; 0
    12f2:	3f ef       	ldi	r19, 0xFF	; 255
    12f4:	4f e7       	ldi	r20, 0x7F	; 127
    12f6:	57 e4       	ldi	r21, 0x47	; 71
    12f8:	0e 94 c1 16 	call	0x2d82	; 0x2d82 <__mulsf3>
	
	AD5421_WriteDac((unsigned short)OutCurrent);
    12fc:	0e 94 df 15 	call	0x2bbe	; 0x2bbe <__fixunssfsi>
    1300:	dc 01       	movw	r26, r24
    1302:	cb 01       	movw	r24, r22
    1304:	0e 94 23 03 	call	0x646	; 0x646 <AD5421_WriteDac>
}
    1308:	ff 90       	pop	r15
    130a:	ef 90       	pop	r14
    130c:	df 90       	pop	r13
    130e:	cf 90       	pop	r12
    1310:	08 95       	ret

00001312 <Read_LDC>:

//촸퀛쩠 쌹 첋쐑
uint32_t Read_LDC(){
    1312:	cf 92       	push	r12
    1314:	df 92       	push	r13
    1316:	ef 92       	push	r14
    1318:	ff 92       	push	r15
    131a:	cf 93       	push	r28
    131c:	df 93       	push	r29
	uint32_t tmp = 0x00000000;

	if((Get_Status()&CH0_UNREAD_CONV) == CH0_UNREAD_CONV) {
    131e:	0e 94 7c 07 	call	0xef8	; 0xef8 <Get_Status>
    1322:	83 ff       	sbrs	r24, 3
    1324:	28 c0       	rjmp	.+80     	; 0x1376 <Read_LDC+0x64>
	
		//LDC 쌹챹 첋쮩췂.
		tmp |= Read_Data(DATA_CH0_MSB);
    1326:	80 e0       	ldi	r24, 0x00	; 0
    1328:	0e 94 39 07 	call	0xe72	; 0xe72 <Read_Data>
    132c:	6c 01       	movw	r12, r24
    132e:	ee 24       	eor	r14, r14
    1330:	ff 24       	eor	r15, r15
		tmp = (tmp << 16);
    1332:	76 01       	movw	r14, r12
    1334:	dd 24       	eor	r13, r13
    1336:	cc 24       	eor	r12, r12
		tmp |= Read_Data(DATA_CH0_LSB);
    1338:	81 e0       	ldi	r24, 0x01	; 1
    133a:	0e 94 39 07 	call	0xe72	; 0xe72 <Read_Data>
    133e:	a0 e0       	ldi	r26, 0x00	; 0
    1340:	b0 e0       	ldi	r27, 0x00	; 0
    1342:	c8 2a       	or	r12, r24
    1344:	d9 2a       	or	r13, r25
    1346:	ea 2a       	or	r14, r26
    1348:	fb 2a       	or	r15, r27

		//챵珝 쮲챹 썭施몾 온첇콼 첰천.
		if((tmp&0xF0000000) == 0) ldc_data = tmp >> 8;
    134a:	d7 01       	movw	r26, r14
    134c:	c6 01       	movw	r24, r12
    134e:	80 70       	andi	r24, 0x00	; 0
    1350:	90 70       	andi	r25, 0x00	; 0
    1352:	a0 70       	andi	r26, 0x00	; 0
    1354:	b0 7f       	andi	r27, 0xF0	; 240
    1356:	00 97       	sbiw	r24, 0x00	; 0
    1358:	a1 05       	cpc	r26, r1
    135a:	b1 05       	cpc	r27, r1
    135c:	61 f4       	brne	.+24     	; 0x1376 <Read_LDC+0x64>
    135e:	cd 2c       	mov	r12, r13
    1360:	de 2c       	mov	r13, r14
    1362:	ef 2c       	mov	r14, r15
    1364:	ff 24       	eor	r15, r15
    1366:	c0 92 8e 02 	sts	0x028E, r12
    136a:	d0 92 8f 02 	sts	0x028F, r13
    136e:	e0 92 90 02 	sts	0x0290, r14
    1372:	f0 92 91 02 	sts	0x0291, r15
	}
	
#ifdef DATA_DEBUG
	if(opMode == DP_MODE || opMode == SET_MODE){
    1376:	80 91 29 02 	lds	r24, 0x0229
    137a:	88 23       	and	r24, r24
    137c:	11 f0       	breq	.+4      	; 0x1382 <Read_LDC+0x70>
    137e:	82 30       	cpi	r24, 0x02	; 2
    1380:	a1 f5       	brne	.+104    	; 0x13ea <Read_LDC+0xd8>
		sprintf(LCD,"DATA: %08lX",ldc_data);
    1382:	8d b7       	in	r24, 0x3d	; 61
    1384:	9e b7       	in	r25, 0x3e	; 62
    1386:	08 97       	sbiw	r24, 0x08	; 8
    1388:	0f b6       	in	r0, 0x3f	; 63
    138a:	f8 94       	cli
    138c:	9e bf       	out	0x3e, r25	; 62
    138e:	0f be       	out	0x3f, r0	; 63
    1390:	8d bf       	out	0x3d, r24	; 61
    1392:	ed b7       	in	r30, 0x3d	; 61
    1394:	fe b7       	in	r31, 0x3e	; 62
    1396:	31 96       	adiw	r30, 0x01	; 1
    1398:	ca e7       	ldi	r28, 0x7A	; 122
    139a:	d2 e0       	ldi	r29, 0x02	; 2
    139c:	ad b7       	in	r26, 0x3d	; 61
    139e:	be b7       	in	r27, 0x3e	; 62
    13a0:	12 96       	adiw	r26, 0x02	; 2
    13a2:	dc 93       	st	X, r29
    13a4:	ce 93       	st	-X, r28
    13a6:	11 97       	sbiw	r26, 0x01	; 1
    13a8:	86 e6       	ldi	r24, 0x66	; 102
    13aa:	90 e0       	ldi	r25, 0x00	; 0
    13ac:	93 83       	std	Z+3, r25	; 0x03
    13ae:	82 83       	std	Z+2, r24	; 0x02
    13b0:	80 91 8e 02 	lds	r24, 0x028E
    13b4:	90 91 8f 02 	lds	r25, 0x028F
    13b8:	a0 91 90 02 	lds	r26, 0x0290
    13bc:	b0 91 91 02 	lds	r27, 0x0291
    13c0:	84 83       	std	Z+4, r24	; 0x04
    13c2:	95 83       	std	Z+5, r25	; 0x05
    13c4:	a6 83       	std	Z+6, r26	; 0x06
    13c6:	b7 83       	std	Z+7, r27	; 0x07
    13c8:	0e 94 57 17 	call	0x2eae	; 0x2eae <sprintf>
		GLCD_GoTo(16, 5);
    13cc:	8d b7       	in	r24, 0x3d	; 61
    13ce:	9e b7       	in	r25, 0x3e	; 62
    13d0:	08 96       	adiw	r24, 0x08	; 8
    13d2:	0f b6       	in	r0, 0x3f	; 63
    13d4:	f8 94       	cli
    13d6:	9e bf       	out	0x3e, r25	; 62
    13d8:	0f be       	out	0x3f, r0	; 63
    13da:	8d bf       	out	0x3d, r24	; 61
    13dc:	80 e1       	ldi	r24, 0x10	; 16
    13de:	65 e0       	ldi	r22, 0x05	; 5
    13e0:	0e 94 81 05 	call	0xb02	; 0xb02 <GLCD_GoTo>
		GLCD_WriteString5x7(LCD);
    13e4:	ce 01       	movw	r24, r28
    13e6:	0e 94 f6 05 	call	0xbec	; 0xbec <GLCD_WriteString5x7>
	}
#endif
	return ldc_data;
    13ea:	60 91 8e 02 	lds	r22, 0x028E
    13ee:	70 91 8f 02 	lds	r23, 0x028F
}
    13f2:	80 91 90 02 	lds	r24, 0x0290
    13f6:	90 91 91 02 	lds	r25, 0x0291
    13fa:	df 91       	pop	r29
    13fc:	cf 91       	pop	r28
    13fe:	ff 90       	pop	r15
    1400:	ef 90       	pop	r14
    1402:	df 90       	pop	r13
    1404:	cf 90       	pop	r12
    1406:	08 95       	ret

00001408 <Cal_Distance>:

//촸퀛쩠쟍 쌰쵔썴 썐쟕쌹 썯 
float Cal_Distance(uint32_t ldc_d){
    1408:	2f 92       	push	r2
    140a:	3f 92       	push	r3
    140c:	4f 92       	push	r4
    140e:	5f 92       	push	r5
    1410:	6f 92       	push	r6
    1412:	7f 92       	push	r7
    1414:	8f 92       	push	r8
    1416:	9f 92       	push	r9
    1418:	af 92       	push	r10
    141a:	bf 92       	push	r11
    141c:	cf 92       	push	r12
    141e:	df 92       	push	r13
    1420:	ef 92       	push	r14
    1422:	ff 92       	push	r15
    1424:	0f 93       	push	r16
    1426:	1f 93       	push	r17
    1428:	cf 93       	push	r28
    142a:	df 93       	push	r29
    142c:	cd b7       	in	r28, 0x3d	; 61
    142e:	de b7       	in	r29, 0x3e	; 62
    1430:	28 97       	sbiw	r28, 0x08	; 8
    1432:	0f b6       	in	r0, 0x3f	; 63
    1434:	f8 94       	cli
    1436:	de bf       	out	0x3e, r29	; 62
    1438:	0f be       	out	0x3f, r0	; 63
    143a:	cd bf       	out	0x3d, r28	; 61
    143c:	6b 01       	movw	r12, r22
    143e:	7c 01       	movw	r14, r24
	float dst = 0.0f, m = 0.0f;
	float y1, y2, x1, x2;
	uint8_t i;

	for(i = 0;i < LDC_LENGTH; i++){
		if(ldc[i] <= ldc_d) break;
    1440:	80 91 3c 02 	lds	r24, 0x023C
    1444:	90 91 3d 02 	lds	r25, 0x023D
    1448:	a0 91 3e 02 	lds	r26, 0x023E
    144c:	b0 91 3f 02 	lds	r27, 0x023F
    1450:	c8 16       	cp	r12, r24
    1452:	d9 06       	cpc	r13, r25
    1454:	ea 06       	cpc	r14, r26
    1456:	fb 06       	cpc	r15, r27
    1458:	80 f4       	brcc	.+32     	; 0x147a <Cal_Distance+0x72>
    145a:	e0 e4       	ldi	r30, 0x40	; 64
    145c:	f2 e0       	ldi	r31, 0x02	; 2
float Cal_Distance(uint32_t ldc_d){
	float dst = 0.0f, m = 0.0f;
	float y1, y2, x1, x2;
	uint8_t i;

	for(i = 0;i < LDC_LENGTH; i++){
    145e:	01 e0       	ldi	r16, 0x01	; 1
		if(ldc[i] <= ldc_d) break;
    1460:	81 91       	ld	r24, Z+
    1462:	91 91       	ld	r25, Z+
    1464:	a1 91       	ld	r26, Z+
    1466:	b1 91       	ld	r27, Z+
    1468:	c8 16       	cp	r12, r24
    146a:	d9 06       	cpc	r13, r25
    146c:	ea 06       	cpc	r14, r26
    146e:	fb 06       	cpc	r15, r27
    1470:	28 f4       	brcc	.+10     	; 0x147c <Cal_Distance+0x74>
float Cal_Distance(uint32_t ldc_d){
	float dst = 0.0f, m = 0.0f;
	float y1, y2, x1, x2;
	uint8_t i;

	for(i = 0;i < LDC_LENGTH; i++){
    1472:	0f 5f       	subi	r16, 0xFF	; 255
    1474:	0b 30       	cpi	r16, 0x0B	; 11
    1476:	a1 f7       	brne	.-24     	; 0x1460 <Cal_Distance+0x58>
    1478:	01 c0       	rjmp	.+2      	; 0x147c <Cal_Distance+0x74>
    147a:	00 e0       	ldi	r16, 0x00	; 0
		if(ldc[i] <= ldc_d) break;
	}

	index = i;
    147c:	00 93 6c 02 	sts	0x026C, r16
	y1 = (float)index-1;
    1480:	60 2f       	mov	r22, r16
    1482:	70 e0       	ldi	r23, 0x00	; 0
    1484:	80 e0       	ldi	r24, 0x00	; 0
    1486:	90 e0       	ldi	r25, 0x00	; 0
    1488:	0e 94 0b 16 	call	0x2c16	; 0x2c16 <__floatunsisf>
    148c:	2b 01       	movw	r4, r22
    148e:	3c 01       	movw	r6, r24
    1490:	20 e0       	ldi	r18, 0x00	; 0
    1492:	30 e0       	ldi	r19, 0x00	; 0
    1494:	40 e8       	ldi	r20, 0x80	; 128
    1496:	5f e3       	ldi	r21, 0x3F	; 63
    1498:	0e 94 0e 15 	call	0x2a1c	; 0x2a1c <__subsf3>
    149c:	86 2e       	mov	r8, r22
    149e:	37 2e       	mov	r3, r23
    14a0:	28 2e       	mov	r2, r24
    14a2:	9b 83       	std	Y+3, r25	; 0x03
	y2 = (float)index;
	x1 = (float)ldc[index-1];
    14a4:	80 2f       	mov	r24, r16
    14a6:	90 e0       	ldi	r25, 0x00	; 0
    14a8:	9a 83       	std	Y+2, r25	; 0x02
    14aa:	89 83       	std	Y+1, r24	; 0x01
    14ac:	fc 01       	movw	r30, r24
    14ae:	31 97       	sbiw	r30, 0x01	; 1
    14b0:	ee 0f       	add	r30, r30
    14b2:	ff 1f       	adc	r31, r31
    14b4:	ee 0f       	add	r30, r30
    14b6:	ff 1f       	adc	r31, r31
    14b8:	e4 5c       	subi	r30, 0xC4	; 196
    14ba:	fd 4f       	sbci	r31, 0xFD	; 253
    14bc:	60 81       	ld	r22, Z
    14be:	71 81       	ldd	r23, Z+1	; 0x01
    14c0:	82 81       	ldd	r24, Z+2	; 0x02
    14c2:	93 81       	ldd	r25, Z+3	; 0x03
    14c4:	0e 94 0b 16 	call	0x2c16	; 0x2c16 <__floatunsisf>
    14c8:	68 87       	std	Y+8, r22	; 0x08
    14ca:	b7 2e       	mov	r11, r23
    14cc:	a8 2e       	mov	r10, r24
    14ce:	99 2e       	mov	r9, r25
	x2 = (float)ldc[index];
	m = (y2-y1)/(x2 - x1);
	dst = m*(ldc_d-x1) + y1;
    14d0:	c7 01       	movw	r24, r14
    14d2:	b6 01       	movw	r22, r12
    14d4:	0e 94 0b 16 	call	0x2c16	; 0x2c16 <__floatunsisf>
    14d8:	f8 85       	ldd	r31, Y+8	; 0x08
    14da:	0f 2f       	mov	r16, r31
    14dc:	1b 2d       	mov	r17, r11
    14de:	2a 2d       	mov	r18, r10
    14e0:	39 2d       	mov	r19, r9
    14e2:	a9 01       	movw	r20, r18
    14e4:	98 01       	movw	r18, r16
    14e6:	0e 94 0e 15 	call	0x2a1c	; 0x2a1c <__subsf3>
    14ea:	6c 83       	std	Y+4, r22	; 0x04
    14ec:	7d 83       	std	Y+5, r23	; 0x05
    14ee:	8e 83       	std	Y+6, r24	; 0x06
    14f0:	9f 83       	std	Y+7, r25	; 0x07
	index = i;
	y1 = (float)index-1;
	y2 = (float)index;
	x1 = (float)ldc[index-1];
	x2 = (float)ldc[index];
	m = (y2-y1)/(x2 - x1);
    14f2:	c3 01       	movw	r24, r6
    14f4:	b2 01       	movw	r22, r4
    14f6:	4b 81       	ldd	r20, Y+3	; 0x03
    14f8:	08 2d       	mov	r16, r8
    14fa:	13 2d       	mov	r17, r3
    14fc:	22 2d       	mov	r18, r2
    14fe:	34 2f       	mov	r19, r20
    1500:	a9 01       	movw	r20, r18
    1502:	98 01       	movw	r18, r16
    1504:	0e 94 0e 15 	call	0x2a1c	; 0x2a1c <__subsf3>
    1508:	6b 01       	movw	r12, r22
    150a:	7c 01       	movw	r14, r24

	index = i;
	y1 = (float)index-1;
	y2 = (float)index;
	x1 = (float)ldc[index-1];
	x2 = (float)ldc[index];
    150c:	e9 81       	ldd	r30, Y+1	; 0x01
    150e:	fa 81       	ldd	r31, Y+2	; 0x02
    1510:	ee 0f       	add	r30, r30
    1512:	ff 1f       	adc	r31, r31
    1514:	ee 0f       	add	r30, r30
    1516:	ff 1f       	adc	r31, r31
    1518:	e4 5c       	subi	r30, 0xC4	; 196
    151a:	fd 4f       	sbci	r31, 0xFD	; 253
    151c:	60 81       	ld	r22, Z
    151e:	71 81       	ldd	r23, Z+1	; 0x01
    1520:	82 81       	ldd	r24, Z+2	; 0x02
    1522:	93 81       	ldd	r25, Z+3	; 0x03
    1524:	0e 94 0b 16 	call	0x2c16	; 0x2c16 <__floatunsisf>
	m = (y2-y1)/(x2 - x1);
    1528:	f8 85       	ldd	r31, Y+8	; 0x08
    152a:	0f 2f       	mov	r16, r31
    152c:	1b 2d       	mov	r17, r11
    152e:	2a 2d       	mov	r18, r10
    1530:	39 2d       	mov	r19, r9
    1532:	a9 01       	movw	r20, r18
    1534:	98 01       	movw	r18, r16
    1536:	0e 94 0e 15 	call	0x2a1c	; 0x2a1c <__subsf3>
    153a:	9b 01       	movw	r18, r22
    153c:	ac 01       	movw	r20, r24
    153e:	c7 01       	movw	r24, r14
    1540:	b6 01       	movw	r22, r12
    1542:	0e 94 77 15 	call	0x2aee	; 0x2aee <__divsf3>
    1546:	9b 01       	movw	r18, r22
    1548:	ac 01       	movw	r20, r24
	dst = m*(ldc_d-x1) + y1;
    154a:	6c 81       	ldd	r22, Y+4	; 0x04
    154c:	7d 81       	ldd	r23, Y+5	; 0x05
    154e:	8e 81       	ldd	r24, Y+6	; 0x06
    1550:	9f 81       	ldd	r25, Y+7	; 0x07
    1552:	0e 94 c1 16 	call	0x2d82	; 0x2d82 <__mulsf3>
    1556:	4b 81       	ldd	r20, Y+3	; 0x03
    1558:	08 2d       	mov	r16, r8
    155a:	13 2d       	mov	r17, r3
    155c:	22 2d       	mov	r18, r2
    155e:	34 2f       	mov	r19, r20
    1560:	a9 01       	movw	r20, r18
    1562:	98 01       	movw	r18, r16
    1564:	0e 94 0f 15 	call	0x2a1e	; 0x2a1e <__addsf3>
		GLCD_GoTo(8, 5);
		GLCD_WriteString5x7(LCD);
	}
#endif	
	return dst;
}
    1568:	46 2f       	mov	r20, r22
    156a:	57 2f       	mov	r21, r23
    156c:	68 2f       	mov	r22, r24
    156e:	79 2f       	mov	r23, r25
    1570:	cb 01       	movw	r24, r22
    1572:	ba 01       	movw	r22, r20
    1574:	28 96       	adiw	r28, 0x08	; 8
    1576:	0f b6       	in	r0, 0x3f	; 63
    1578:	f8 94       	cli
    157a:	de bf       	out	0x3e, r29	; 62
    157c:	0f be       	out	0x3f, r0	; 63
    157e:	cd bf       	out	0x3d, r28	; 61
    1580:	df 91       	pop	r29
    1582:	cf 91       	pop	r28
    1584:	1f 91       	pop	r17
    1586:	0f 91       	pop	r16
    1588:	ff 90       	pop	r15
    158a:	ef 90       	pop	r14
    158c:	df 90       	pop	r13
    158e:	cf 90       	pop	r12
    1590:	bf 90       	pop	r11
    1592:	af 90       	pop	r10
    1594:	9f 90       	pop	r9
    1596:	8f 90       	pop	r8
    1598:	7f 90       	pop	r7
    159a:	6f 90       	pop	r6
    159c:	5f 90       	pop	r5
    159e:	4f 90       	pop	r4
    15a0:	3f 90       	pop	r3
    15a2:	2f 90       	pop	r2
    15a4:	08 95       	ret

000015a6 <CUR_Output>:

//촸퀛쩠쟍 Ь퀖 첲珝뿷芳 
float CUR_Output(uint32_t ldc_d){
    15a6:	2f 92       	push	r2
    15a8:	3f 92       	push	r3
    15aa:	4f 92       	push	r4
    15ac:	5f 92       	push	r5
    15ae:	6f 92       	push	r6
    15b0:	7f 92       	push	r7
    15b2:	8f 92       	push	r8
    15b4:	9f 92       	push	r9
    15b6:	af 92       	push	r10
    15b8:	bf 92       	push	r11
    15ba:	cf 92       	push	r12
    15bc:	df 92       	push	r13
    15be:	ef 92       	push	r14
    15c0:	ff 92       	push	r15
    15c2:	0f 93       	push	r16
    15c4:	1f 93       	push	r17
    15c6:	cf 93       	push	r28
    15c8:	df 93       	push	r29
    15ca:	00 d0       	rcall	.+0      	; 0x15cc <CUR_Output+0x26>
    15cc:	00 d0       	rcall	.+0      	; 0x15ce <CUR_Output+0x28>
    15ce:	cd b7       	in	r28, 0x3d	; 61
    15d0:	de b7       	in	r29, 0x3e	; 62
    15d2:	2b 01       	movw	r4, r22
    15d4:	3c 01       	movw	r6, r24
	float cur = 0.0f, m = 0.0f;
	float x1, x2, y1, y2;

	y2 = MIN_CURR + UNIT_CURR * (float)index;
    15d6:	10 91 6c 02 	lds	r17, 0x026C
    15da:	61 2f       	mov	r22, r17
    15dc:	70 e0       	ldi	r23, 0x00	; 0
    15de:	80 e0       	ldi	r24, 0x00	; 0
    15e0:	90 e0       	ldi	r25, 0x00	; 0
    15e2:	0e 94 0b 16 	call	0x2c16	; 0x2c16 <__floatunsisf>
    15e6:	4b 01       	movw	r8, r22
    15e8:	5c 01       	movw	r10, r24
	y1 = MIN_CURR + UNIT_CURR * ((float)index-1);
    15ea:	20 e0       	ldi	r18, 0x00	; 0
    15ec:	30 e0       	ldi	r19, 0x00	; 0
    15ee:	40 e8       	ldi	r20, 0x80	; 128
    15f0:	5f e3       	ldi	r21, 0x3F	; 63
    15f2:	0e 94 0e 15 	call	0x2a1c	; 0x2a1c <__subsf3>
    15f6:	2d ec       	ldi	r18, 0xCD	; 205
    15f8:	3c ec       	ldi	r19, 0xCC	; 204
    15fa:	4c ec       	ldi	r20, 0xCC	; 204
    15fc:	5f e3       	ldi	r21, 0x3F	; 63
    15fe:	0e 94 c1 16 	call	0x2d82	; 0x2d82 <__mulsf3>
    1602:	20 e0       	ldi	r18, 0x00	; 0
    1604:	30 e0       	ldi	r19, 0x00	; 0
    1606:	40 e8       	ldi	r20, 0x80	; 128
    1608:	50 e4       	ldi	r21, 0x40	; 64
    160a:	0e 94 0f 15 	call	0x2a1e	; 0x2a1e <__addsf3>
    160e:	d6 2e       	mov	r13, r22
    1610:	c7 2e       	mov	r12, r23
    1612:	38 2e       	mov	r3, r24
    1614:	29 2e       	mov	r2, r25
	x1 = (float)ldc[index-1];
    1616:	81 2f       	mov	r24, r17
    1618:	90 e0       	ldi	r25, 0x00	; 0
    161a:	9a 83       	std	Y+2, r25	; 0x02
    161c:	89 83       	std	Y+1, r24	; 0x01
    161e:	fc 01       	movw	r30, r24
    1620:	31 97       	sbiw	r30, 0x01	; 1
    1622:	ee 0f       	add	r30, r30
    1624:	ff 1f       	adc	r31, r31
    1626:	ee 0f       	add	r30, r30
    1628:	ff 1f       	adc	r31, r31
    162a:	e4 5c       	subi	r30, 0xC4	; 196
    162c:	fd 4f       	sbci	r31, 0xFD	; 253
    162e:	60 81       	ld	r22, Z
    1630:	71 81       	ldd	r23, Z+1	; 0x01
    1632:	82 81       	ldd	r24, Z+2	; 0x02
    1634:	93 81       	ldd	r25, Z+3	; 0x03
    1636:	0e 94 0b 16 	call	0x2c16	; 0x2c16 <__floatunsisf>
    163a:	6b 83       	std	Y+3, r22	; 0x03
    163c:	7c 83       	std	Y+4, r23	; 0x04
    163e:	f8 2e       	mov	r15, r24
    1640:	e9 2e       	mov	r14, r25
	x2 = (float)ldc[index];
	
	m = (y2 - y1)/(x2 - x1);
	cur = m * (ldc_d - x1) + y1;
    1642:	c3 01       	movw	r24, r6
    1644:	b2 01       	movw	r22, r4
    1646:	0e 94 0b 16 	call	0x2c16	; 0x2c16 <__floatunsisf>
    164a:	fb 81       	ldd	r31, Y+3	; 0x03
    164c:	ec 81       	ldd	r30, Y+4	; 0x04
    164e:	0f 2f       	mov	r16, r31
    1650:	1e 2f       	mov	r17, r30
    1652:	2f 2d       	mov	r18, r15
    1654:	3e 2d       	mov	r19, r14
    1656:	a9 01       	movw	r20, r18
    1658:	98 01       	movw	r18, r16
    165a:	0e 94 0e 15 	call	0x2a1c	; 0x2a1c <__subsf3>
    165e:	2b 01       	movw	r4, r22
    1660:	3c 01       	movw	r6, r24
//촸퀛쩠쟍 Ь퀖 첲珝뿷芳 
float CUR_Output(uint32_t ldc_d){
	float cur = 0.0f, m = 0.0f;
	float x1, x2, y1, y2;

	y2 = MIN_CURR + UNIT_CURR * (float)index;
    1662:	c5 01       	movw	r24, r10
    1664:	b4 01       	movw	r22, r8
    1666:	2d ec       	ldi	r18, 0xCD	; 205
    1668:	3c ec       	ldi	r19, 0xCC	; 204
    166a:	4c ec       	ldi	r20, 0xCC	; 204
    166c:	5f e3       	ldi	r21, 0x3F	; 63
    166e:	0e 94 c1 16 	call	0x2d82	; 0x2d82 <__mulsf3>
    1672:	20 e0       	ldi	r18, 0x00	; 0
    1674:	30 e0       	ldi	r19, 0x00	; 0
    1676:	40 e8       	ldi	r20, 0x80	; 128
    1678:	50 e4       	ldi	r21, 0x40	; 64
    167a:	0e 94 0f 15 	call	0x2a1e	; 0x2a1e <__addsf3>
	y1 = MIN_CURR + UNIT_CURR * ((float)index-1);
	x1 = (float)ldc[index-1];
	x2 = (float)ldc[index];
	
	m = (y2 - y1)/(x2 - x1);
    167e:	0d 2d       	mov	r16, r13
    1680:	1c 2d       	mov	r17, r12
    1682:	23 2d       	mov	r18, r3
    1684:	32 2d       	mov	r19, r2
    1686:	a9 01       	movw	r20, r18
    1688:	98 01       	movw	r18, r16
    168a:	0e 94 0e 15 	call	0x2a1c	; 0x2a1c <__subsf3>
    168e:	4b 01       	movw	r8, r22
    1690:	5c 01       	movw	r10, r24
	float x1, x2, y1, y2;

	y2 = MIN_CURR + UNIT_CURR * (float)index;
	y1 = MIN_CURR + UNIT_CURR * ((float)index-1);
	x1 = (float)ldc[index-1];
	x2 = (float)ldc[index];
    1692:	e9 81       	ldd	r30, Y+1	; 0x01
    1694:	fa 81       	ldd	r31, Y+2	; 0x02
    1696:	ee 0f       	add	r30, r30
    1698:	ff 1f       	adc	r31, r31
    169a:	ee 0f       	add	r30, r30
    169c:	ff 1f       	adc	r31, r31
    169e:	e4 5c       	subi	r30, 0xC4	; 196
    16a0:	fd 4f       	sbci	r31, 0xFD	; 253
    16a2:	60 81       	ld	r22, Z
    16a4:	71 81       	ldd	r23, Z+1	; 0x01
    16a6:	82 81       	ldd	r24, Z+2	; 0x02
    16a8:	93 81       	ldd	r25, Z+3	; 0x03
    16aa:	0e 94 0b 16 	call	0x2c16	; 0x2c16 <__floatunsisf>
	
	m = (y2 - y1)/(x2 - x1);
    16ae:	fb 81       	ldd	r31, Y+3	; 0x03
    16b0:	ec 81       	ldd	r30, Y+4	; 0x04
    16b2:	0f 2f       	mov	r16, r31
    16b4:	1e 2f       	mov	r17, r30
    16b6:	2f 2d       	mov	r18, r15
    16b8:	3e 2d       	mov	r19, r14
    16ba:	a9 01       	movw	r20, r18
    16bc:	98 01       	movw	r18, r16
    16be:	0e 94 0e 15 	call	0x2a1c	; 0x2a1c <__subsf3>
    16c2:	9b 01       	movw	r18, r22
    16c4:	ac 01       	movw	r20, r24
    16c6:	c5 01       	movw	r24, r10
    16c8:	b4 01       	movw	r22, r8
    16ca:	0e 94 77 15 	call	0x2aee	; 0x2aee <__divsf3>
    16ce:	9b 01       	movw	r18, r22
    16d0:	ac 01       	movw	r20, r24
	cur = m * (ldc_d - x1) + y1;
    16d2:	c3 01       	movw	r24, r6
    16d4:	b2 01       	movw	r22, r4
    16d6:	0e 94 c1 16 	call	0x2d82	; 0x2d82 <__mulsf3>
    16da:	0d 2d       	mov	r16, r13
    16dc:	1c 2d       	mov	r17, r12
    16de:	23 2d       	mov	r18, r3
    16e0:	32 2d       	mov	r19, r2
    16e2:	a9 01       	movw	r20, r18
    16e4:	98 01       	movw	r18, r16
    16e6:	0e 94 0f 15 	call	0x2a1e	; 0x2a1e <__addsf3>
    16ea:	f7 2e       	mov	r15, r23
    16ec:	d8 2e       	mov	r13, r24
    16ee:	16 2f       	mov	r17, r22
    16f0:	47 2e       	mov	r4, r23
    16f2:	88 2e       	mov	r8, r24
    16f4:	09 2f       	mov	r16, r25

	if(cur < MIN_CURR) cur = MIN_CURR;
    16f6:	86 2f       	mov	r24, r22
    16f8:	9f 2d       	mov	r25, r15
    16fa:	ad 2d       	mov	r26, r13
    16fc:	b0 2f       	mov	r27, r16
    16fe:	bc 01       	movw	r22, r24
    1700:	cd 01       	movw	r24, r26
    1702:	20 e0       	ldi	r18, 0x00	; 0
    1704:	30 e0       	ldi	r19, 0x00	; 0
    1706:	40 e8       	ldi	r20, 0x80	; 128
    1708:	50 e4       	ldi	r21, 0x40	; 64
    170a:	0e 94 73 15 	call	0x2ae6	; 0x2ae6 <__cmpsf2>
    170e:	88 23       	and	r24, r24
    1710:	7c f0       	brlt	.+30     	; 0x1730 <CUR_Output+0x18a>
	else if(cur > MAX_CURR) cur = MAX_CURR;
    1712:	81 2f       	mov	r24, r17
    1714:	9f 2d       	mov	r25, r15
    1716:	ad 2d       	mov	r26, r13
    1718:	b0 2f       	mov	r27, r16
    171a:	bc 01       	movw	r22, r24
    171c:	cd 01       	movw	r24, r26
    171e:	20 e0       	ldi	r18, 0x00	; 0
    1720:	30 e0       	ldi	r19, 0x00	; 0
    1722:	40 ea       	ldi	r20, 0xA0	; 160
    1724:	51 e4       	ldi	r21, 0x41	; 65
    1726:	0e 94 bd 16 	call	0x2d7a	; 0x2d7a <__gesf2>
    172a:	18 16       	cp	r1, r24
    172c:	4c f0       	brlt	.+18     	; 0x1740 <CUR_Output+0x19a>
    172e:	0f c0       	rjmp	.+30     	; 0x174e <CUR_Output+0x1a8>
	x2 = (float)ldc[index];
	
	m = (y2 - y1)/(x2 - x1);
	cur = m * (ldc_d - x1) + y1;

	if(cur < MIN_CURR) cur = MIN_CURR;
    1730:	10 e0       	ldi	r17, 0x00	; 0
    1732:	44 24       	eor	r4, r4
    1734:	0f 2e       	mov	r0, r31
    1736:	f0 e8       	ldi	r31, 0x80	; 128
    1738:	8f 2e       	mov	r8, r31
    173a:	f0 2d       	mov	r31, r0
    173c:	00 e4       	ldi	r16, 0x40	; 64
    173e:	07 c0       	rjmp	.+14     	; 0x174e <CUR_Output+0x1a8>
	else if(cur > MAX_CURR) cur = MAX_CURR;
    1740:	10 e0       	ldi	r17, 0x00	; 0
    1742:	44 24       	eor	r4, r4
    1744:	0f 2e       	mov	r0, r31
    1746:	f0 ea       	ldi	r31, 0xA0	; 160
    1748:	8f 2e       	mov	r8, r31
    174a:	f0 2d       	mov	r31, r0
    174c:	01 e4       	ldi	r16, 0x41	; 65
		GLCD_GoTo(8, 5);
		GLCD_WriteString5x7(LCD);
	}
#endif

	AD5421_Output(cur);
    174e:	81 2f       	mov	r24, r17
    1750:	94 2d       	mov	r25, r4
    1752:	a8 2d       	mov	r26, r8
    1754:	b0 2f       	mov	r27, r16
    1756:	bc 01       	movw	r22, r24
    1758:	cd 01       	movw	r24, r26
    175a:	0e 94 3c 09 	call	0x1278	; 0x1278 <AD5421_Output>

	return cur;
}
    175e:	81 2f       	mov	r24, r17
    1760:	94 2d       	mov	r25, r4
    1762:	a8 2d       	mov	r26, r8
    1764:	b0 2f       	mov	r27, r16
    1766:	bc 01       	movw	r22, r24
    1768:	cd 01       	movw	r24, r26
    176a:	0f 90       	pop	r0
    176c:	0f 90       	pop	r0
    176e:	0f 90       	pop	r0
    1770:	0f 90       	pop	r0
    1772:	df 91       	pop	r29
    1774:	cf 91       	pop	r28
    1776:	1f 91       	pop	r17
    1778:	0f 91       	pop	r16
    177a:	ff 90       	pop	r15
    177c:	ef 90       	pop	r14
    177e:	df 90       	pop	r13
    1780:	cf 90       	pop	r12
    1782:	bf 90       	pop	r11
    1784:	af 90       	pop	r10
    1786:	9f 90       	pop	r9
    1788:	8f 90       	pop	r8
    178a:	7f 90       	pop	r7
    178c:	6f 90       	pop	r6
    178e:	5f 90       	pop	r5
    1790:	4f 90       	pop	r4
    1792:	3f 90       	pop	r3
    1794:	2f 90       	pop	r2
    1796:	08 95       	ret

00001798 <Cal_Percent>:

float Cal_Percent(float cur){
    1798:	cf 92       	push	r12
    179a:	df 92       	push	r13
    179c:	ef 92       	push	r14
    179e:	ff 92       	push	r15
    17a0:	0f 93       	push	r16
    17a2:	1f 93       	push	r17
    17a4:	cf 93       	push	r28
    17a6:	df 93       	push	r29
	float per;
	
	per = ((cur - MIN_CURR)/(MAX_CURR - MIN_CURR))*100.0f;
    17a8:	20 e0       	ldi	r18, 0x00	; 0
    17aa:	30 e0       	ldi	r19, 0x00	; 0
    17ac:	40 e8       	ldi	r20, 0x80	; 128
    17ae:	50 e4       	ldi	r21, 0x40	; 64
    17b0:	0e 94 0e 15 	call	0x2a1c	; 0x2a1c <__subsf3>
    17b4:	20 e0       	ldi	r18, 0x00	; 0
    17b6:	30 e0       	ldi	r19, 0x00	; 0
    17b8:	40 e8       	ldi	r20, 0x80	; 128
    17ba:	5d e3       	ldi	r21, 0x3D	; 61
    17bc:	0e 94 c1 16 	call	0x2d82	; 0x2d82 <__mulsf3>
    17c0:	20 e0       	ldi	r18, 0x00	; 0
    17c2:	30 e0       	ldi	r19, 0x00	; 0
    17c4:	48 ec       	ldi	r20, 0xC8	; 200
    17c6:	52 e4       	ldi	r21, 0x42	; 66
    17c8:	0e 94 c1 16 	call	0x2d82	; 0x2d82 <__mulsf3>
    17cc:	06 2f       	mov	r16, r22
    17ce:	17 2f       	mov	r17, r23
    17d0:	d8 2f       	mov	r29, r24
    17d2:	c9 2f       	mov	r28, r25
    17d4:	e6 2e       	mov	r14, r22
    17d6:	f7 2e       	mov	r15, r23
    17d8:	d8 2e       	mov	r13, r24
    17da:	c9 2e       	mov	r12, r25
	if(per < 0.0f) per = 0.0f;
    17dc:	86 2f       	mov	r24, r22
    17de:	91 2f       	mov	r25, r17
    17e0:	ad 2f       	mov	r26, r29
    17e2:	bc 2f       	mov	r27, r28
    17e4:	bc 01       	movw	r22, r24
    17e6:	cd 01       	movw	r24, r26
    17e8:	20 e0       	ldi	r18, 0x00	; 0
    17ea:	30 e0       	ldi	r19, 0x00	; 0
    17ec:	a9 01       	movw	r20, r18
    17ee:	0e 94 73 15 	call	0x2ae6	; 0x2ae6 <__cmpsf2>
    17f2:	88 23       	and	r24, r24
    17f4:	7c f0       	brlt	.+30     	; 0x1814 <Cal_Percent+0x7c>
	else if(per >100.0f) per = 100.0f;
    17f6:	80 2f       	mov	r24, r16
    17f8:	91 2f       	mov	r25, r17
    17fa:	ad 2f       	mov	r26, r29
    17fc:	bc 2f       	mov	r27, r28
    17fe:	bc 01       	movw	r22, r24
    1800:	cd 01       	movw	r24, r26
    1802:	20 e0       	ldi	r18, 0x00	; 0
    1804:	30 e0       	ldi	r19, 0x00	; 0
    1806:	48 ec       	ldi	r20, 0xC8	; 200
    1808:	52 e4       	ldi	r21, 0x42	; 66
    180a:	0e 94 bd 16 	call	0x2d7a	; 0x2d7a <__gesf2>
    180e:	18 16       	cp	r1, r24
    1810:	34 f0       	brlt	.+12     	; 0x181e <Cal_Percent+0x86>
    1812:	0f c0       	rjmp	.+30     	; 0x1832 <Cal_Percent+0x9a>

float Cal_Percent(float cur){
	float per;
	
	per = ((cur - MIN_CURR)/(MAX_CURR - MIN_CURR))*100.0f;
	if(per < 0.0f) per = 0.0f;
    1814:	ee 24       	eor	r14, r14
    1816:	ff 24       	eor	r15, r15
    1818:	dd 24       	eor	r13, r13
    181a:	cc 24       	eor	r12, r12
    181c:	0a c0       	rjmp	.+20     	; 0x1832 <Cal_Percent+0x9a>
	else if(per >100.0f) per = 100.0f;
    181e:	ee 24       	eor	r14, r14
    1820:	ff 24       	eor	r15, r15
    1822:	0f 2e       	mov	r0, r31
    1824:	f8 ec       	ldi	r31, 0xC8	; 200
    1826:	df 2e       	mov	r13, r31
    1828:	f0 2d       	mov	r31, r0
    182a:	0f 2e       	mov	r0, r31
    182c:	f2 e4       	ldi	r31, 0x42	; 66
    182e:	cf 2e       	mov	r12, r31
    1830:	f0 2d       	mov	r31, r0

	return per;
}
    1832:	8e 2d       	mov	r24, r14
    1834:	9f 2d       	mov	r25, r15
    1836:	ad 2d       	mov	r26, r13
    1838:	bc 2d       	mov	r27, r12
    183a:	bc 01       	movw	r22, r24
    183c:	cd 01       	movw	r24, r26
    183e:	df 91       	pop	r29
    1840:	cf 91       	pop	r28
    1842:	1f 91       	pop	r17
    1844:	0f 91       	pop	r16
    1846:	ff 90       	pop	r15
    1848:	ef 90       	pop	r14
    184a:	df 90       	pop	r13
    184c:	cf 90       	pop	r12
    184e:	08 95       	ret

00001850 <Dsp_Distance>:

//썐쟕 킨쫚 턄절챹 줮찔촾.
void Dsp_Distance(float dis){
    1850:	cf 92       	push	r12
    1852:	df 92       	push	r13
    1854:	ef 92       	push	r14
    1856:	ff 92       	push	r15
    1858:	0f 93       	push	r16
    185a:	1f 93       	push	r17
    185c:	cf 93       	push	r28
    185e:	df 93       	push	r29
    1860:	6b 01       	movw	r12, r22
    1862:	7c 01       	movw	r14, r24
	
	LCD_DefaultScreen("INDUCTIVE SENSING", "SETTING","", "",  "UNIT");
    1864:	2c e8       	ldi	r18, 0x8C	; 140
    1866:	30 e0       	ldi	r19, 0x00	; 0
    1868:	82 e7       	ldi	r24, 0x72	; 114
    186a:	90 e0       	ldi	r25, 0x00	; 0
    186c:	64 e8       	ldi	r22, 0x84	; 132
    186e:	70 e0       	ldi	r23, 0x00	; 0
    1870:	a9 01       	movw	r20, r18
    1872:	0d e8       	ldi	r16, 0x8D	; 141
    1874:	10 e0       	ldi	r17, 0x00	; 0
    1876:	0e 94 b2 08 	call	0x1164	; 0x1164 <LCD_DefaultScreen>

	if (Display_Unit == 0) {	// mm
    187a:	80 91 28 02 	lds	r24, 0x0228
    187e:	88 23       	and	r24, r24
    1880:	71 f5       	brne	.+92     	; 0x18de <Dsp_Distance+0x8e>
		sprintf(LCD, "%5.2F", dis);	
    1882:	8d b7       	in	r24, 0x3d	; 61
    1884:	9e b7       	in	r25, 0x3e	; 62
    1886:	08 97       	sbiw	r24, 0x08	; 8
    1888:	0f b6       	in	r0, 0x3f	; 63
    188a:	f8 94       	cli
    188c:	9e bf       	out	0x3e, r25	; 62
    188e:	0f be       	out	0x3f, r0	; 63
    1890:	8d bf       	out	0x3d, r24	; 61
    1892:	ed b7       	in	r30, 0x3d	; 61
    1894:	fe b7       	in	r31, 0x3e	; 62
    1896:	31 96       	adiw	r30, 0x01	; 1
    1898:	8a e7       	ldi	r24, 0x7A	; 122
    189a:	92 e0       	ldi	r25, 0x02	; 2
    189c:	ad b7       	in	r26, 0x3d	; 61
    189e:	be b7       	in	r27, 0x3e	; 62
    18a0:	12 96       	adiw	r26, 0x02	; 2
    18a2:	9c 93       	st	X, r25
    18a4:	8e 93       	st	-X, r24
    18a6:	11 97       	sbiw	r26, 0x01	; 1
    18a8:	82 e9       	ldi	r24, 0x92	; 146
    18aa:	90 e0       	ldi	r25, 0x00	; 0
    18ac:	93 83       	std	Z+3, r25	; 0x03
    18ae:	82 83       	std	Z+2, r24	; 0x02
    18b0:	c4 82       	std	Z+4, r12	; 0x04
    18b2:	d5 82       	std	Z+5, r13	; 0x05
    18b4:	e6 82       	std	Z+6, r14	; 0x06
    18b6:	f7 82       	std	Z+7, r15	; 0x07
    18b8:	0e 94 57 17 	call	0x2eae	; 0x2eae <sprintf>
		GLCD_GoTo(106, 4);
    18bc:	ed b7       	in	r30, 0x3d	; 61
    18be:	fe b7       	in	r31, 0x3e	; 62
    18c0:	38 96       	adiw	r30, 0x08	; 8
    18c2:	0f b6       	in	r0, 0x3f	; 63
    18c4:	f8 94       	cli
    18c6:	fe bf       	out	0x3e, r31	; 62
    18c8:	0f be       	out	0x3f, r0	; 63
    18ca:	ed bf       	out	0x3d, r30	; 61
    18cc:	8a e6       	ldi	r24, 0x6A	; 106
    18ce:	64 e0       	ldi	r22, 0x04	; 4
    18d0:	0e 94 81 05 	call	0xb02	; 0xb02 <GLCD_GoTo>
		GLCD_WriteString5x7(" mm ");
    18d4:	88 e9       	ldi	r24, 0x98	; 152
    18d6:	90 e0       	ldi	r25, 0x00	; 0
    18d8:	0e 94 f6 05 	call	0xbec	; 0xbec <GLCD_WriteString5x7>
    18dc:	a9 c0       	rjmp	.+338    	; 0x1a30 <Dsp_Distance+0x1e0>
	} else if (Display_Unit == 1) {	// mil
    18de:	81 30       	cpi	r24, 0x01	; 1
    18e0:	c1 f5       	brne	.+112    	; 0x1952 <Dsp_Distance+0x102>
		sprintf(LCD, "%5.1F", dis/0.0254f);
    18e2:	8d b7       	in	r24, 0x3d	; 61
    18e4:	9e b7       	in	r25, 0x3e	; 62
    18e6:	08 97       	sbiw	r24, 0x08	; 8
    18e8:	0f b6       	in	r0, 0x3f	; 63
    18ea:	f8 94       	cli
    18ec:	9e bf       	out	0x3e, r25	; 62
    18ee:	0f be       	out	0x3f, r0	; 63
    18f0:	8d bf       	out	0x3d, r24	; 61
    18f2:	cd b7       	in	r28, 0x3d	; 61
    18f4:	de b7       	in	r29, 0x3e	; 62
    18f6:	21 96       	adiw	r28, 0x01	; 1
    18f8:	8a e7       	ldi	r24, 0x7A	; 122
    18fa:	92 e0       	ldi	r25, 0x02	; 2
    18fc:	ad b7       	in	r26, 0x3d	; 61
    18fe:	be b7       	in	r27, 0x3e	; 62
    1900:	12 96       	adiw	r26, 0x02	; 2
    1902:	9c 93       	st	X, r25
    1904:	8e 93       	st	-X, r24
    1906:	11 97       	sbiw	r26, 0x01	; 1
    1908:	8d e9       	ldi	r24, 0x9D	; 157
    190a:	90 e0       	ldi	r25, 0x00	; 0
    190c:	9b 83       	std	Y+3, r25	; 0x03
    190e:	8a 83       	std	Y+2, r24	; 0x02
    1910:	c7 01       	movw	r24, r14
    1912:	b6 01       	movw	r22, r12
    1914:	29 ea       	ldi	r18, 0xA9	; 169
    1916:	33 e1       	ldi	r19, 0x13	; 19
    1918:	40 ed       	ldi	r20, 0xD0	; 208
    191a:	5c e3       	ldi	r21, 0x3C	; 60
    191c:	0e 94 77 15 	call	0x2aee	; 0x2aee <__divsf3>
    1920:	dc 01       	movw	r26, r24
    1922:	cb 01       	movw	r24, r22
    1924:	8c 83       	std	Y+4, r24	; 0x04
    1926:	9d 83       	std	Y+5, r25	; 0x05
    1928:	ae 83       	std	Y+6, r26	; 0x06
    192a:	bf 83       	std	Y+7, r27	; 0x07
    192c:	0e 94 57 17 	call	0x2eae	; 0x2eae <sprintf>
		GLCD_GoTo(106, 4);
    1930:	ed b7       	in	r30, 0x3d	; 61
    1932:	fe b7       	in	r31, 0x3e	; 62
    1934:	38 96       	adiw	r30, 0x08	; 8
    1936:	0f b6       	in	r0, 0x3f	; 63
    1938:	f8 94       	cli
    193a:	fe bf       	out	0x3e, r31	; 62
    193c:	0f be       	out	0x3f, r0	; 63
    193e:	ed bf       	out	0x3d, r30	; 61
    1940:	8a e6       	ldi	r24, 0x6A	; 106
    1942:	64 e0       	ldi	r22, 0x04	; 4
    1944:	0e 94 81 05 	call	0xb02	; 0xb02 <GLCD_GoTo>
		GLCD_WriteString5x7("mil");
    1948:	83 ea       	ldi	r24, 0xA3	; 163
    194a:	90 e0       	ldi	r25, 0x00	; 0
    194c:	0e 94 f6 05 	call	0xbec	; 0xbec <GLCD_WriteString5x7>
    1950:	6f c0       	rjmp	.+222    	; 0x1a30 <Dsp_Distance+0x1e0>
	} else if (Display_Unit == 2) {	// Percent
    1952:	82 30       	cpi	r24, 0x02	; 2
    1954:	b1 f5       	brne	.+108    	; 0x19c2 <Dsp_Distance+0x172>
		sprintf(LCD, "%5.1F", percent);	
    1956:	8d b7       	in	r24, 0x3d	; 61
    1958:	9e b7       	in	r25, 0x3e	; 62
    195a:	08 97       	sbiw	r24, 0x08	; 8
    195c:	0f b6       	in	r0, 0x3f	; 63
    195e:	f8 94       	cli
    1960:	9e bf       	out	0x3e, r25	; 62
    1962:	0f be       	out	0x3f, r0	; 63
    1964:	8d bf       	out	0x3d, r24	; 61
    1966:	ed b7       	in	r30, 0x3d	; 61
    1968:	fe b7       	in	r31, 0x3e	; 62
    196a:	31 96       	adiw	r30, 0x01	; 1
    196c:	8a e7       	ldi	r24, 0x7A	; 122
    196e:	92 e0       	ldi	r25, 0x02	; 2
    1970:	ad b7       	in	r26, 0x3d	; 61
    1972:	be b7       	in	r27, 0x3e	; 62
    1974:	12 96       	adiw	r26, 0x02	; 2
    1976:	9c 93       	st	X, r25
    1978:	8e 93       	st	-X, r24
    197a:	11 97       	sbiw	r26, 0x01	; 1
    197c:	8d e9       	ldi	r24, 0x9D	; 157
    197e:	90 e0       	ldi	r25, 0x00	; 0
    1980:	93 83       	std	Z+3, r25	; 0x03
    1982:	82 83       	std	Z+2, r24	; 0x02
    1984:	80 91 2f 02 	lds	r24, 0x022F
    1988:	90 91 30 02 	lds	r25, 0x0230
    198c:	a0 91 31 02 	lds	r26, 0x0231
    1990:	b0 91 32 02 	lds	r27, 0x0232
    1994:	84 83       	std	Z+4, r24	; 0x04
    1996:	95 83       	std	Z+5, r25	; 0x05
    1998:	a6 83       	std	Z+6, r26	; 0x06
    199a:	b7 83       	std	Z+7, r27	; 0x07
    199c:	0e 94 57 17 	call	0x2eae	; 0x2eae <sprintf>
		GLCD_GoTo(106, 4);
    19a0:	ed b7       	in	r30, 0x3d	; 61
    19a2:	fe b7       	in	r31, 0x3e	; 62
    19a4:	38 96       	adiw	r30, 0x08	; 8
    19a6:	0f b6       	in	r0, 0x3f	; 63
    19a8:	f8 94       	cli
    19aa:	fe bf       	out	0x3e, r31	; 62
    19ac:	0f be       	out	0x3f, r0	; 63
    19ae:	ed bf       	out	0x3d, r30	; 61
    19b0:	8a e6       	ldi	r24, 0x6A	; 106
    19b2:	64 e0       	ldi	r22, 0x04	; 4
    19b4:	0e 94 81 05 	call	0xb02	; 0xb02 <GLCD_GoTo>
		GLCD_WriteString5x7(" %  ");
    19b8:	87 ea       	ldi	r24, 0xA7	; 167
    19ba:	90 e0       	ldi	r25, 0x00	; 0
    19bc:	0e 94 f6 05 	call	0xbec	; 0xbec <GLCD_WriteString5x7>
    19c0:	37 c0       	rjmp	.+110    	; 0x1a30 <Dsp_Distance+0x1e0>
	} else if (Display_Unit == 3) {	// mA
    19c2:	83 30       	cpi	r24, 0x03	; 3
    19c4:	a9 f5       	brne	.+106    	; 0x1a30 <Dsp_Distance+0x1e0>
		sprintf(LCD, "%5.2F", current);
    19c6:	8d b7       	in	r24, 0x3d	; 61
    19c8:	9e b7       	in	r25, 0x3e	; 62
    19ca:	08 97       	sbiw	r24, 0x08	; 8
    19cc:	0f b6       	in	r0, 0x3f	; 63
    19ce:	f8 94       	cli
    19d0:	9e bf       	out	0x3e, r25	; 62
    19d2:	0f be       	out	0x3f, r0	; 63
    19d4:	8d bf       	out	0x3d, r24	; 61
    19d6:	ed b7       	in	r30, 0x3d	; 61
    19d8:	fe b7       	in	r31, 0x3e	; 62
    19da:	31 96       	adiw	r30, 0x01	; 1
    19dc:	8a e7       	ldi	r24, 0x7A	; 122
    19de:	92 e0       	ldi	r25, 0x02	; 2
    19e0:	ad b7       	in	r26, 0x3d	; 61
    19e2:	be b7       	in	r27, 0x3e	; 62
    19e4:	12 96       	adiw	r26, 0x02	; 2
    19e6:	9c 93       	st	X, r25
    19e8:	8e 93       	st	-X, r24
    19ea:	11 97       	sbiw	r26, 0x01	; 1
    19ec:	82 e9       	ldi	r24, 0x92	; 146
    19ee:	90 e0       	ldi	r25, 0x00	; 0
    19f0:	93 83       	std	Z+3, r25	; 0x03
    19f2:	82 83       	std	Z+2, r24	; 0x02
    19f4:	80 91 68 02 	lds	r24, 0x0268
    19f8:	90 91 69 02 	lds	r25, 0x0269
    19fc:	a0 91 6a 02 	lds	r26, 0x026A
    1a00:	b0 91 6b 02 	lds	r27, 0x026B
    1a04:	84 83       	std	Z+4, r24	; 0x04
    1a06:	95 83       	std	Z+5, r25	; 0x05
    1a08:	a6 83       	std	Z+6, r26	; 0x06
    1a0a:	b7 83       	std	Z+7, r27	; 0x07
    1a0c:	0e 94 57 17 	call	0x2eae	; 0x2eae <sprintf>
		GLCD_GoTo(106, 4);
    1a10:	ed b7       	in	r30, 0x3d	; 61
    1a12:	fe b7       	in	r31, 0x3e	; 62
    1a14:	38 96       	adiw	r30, 0x08	; 8
    1a16:	0f b6       	in	r0, 0x3f	; 63
    1a18:	f8 94       	cli
    1a1a:	fe bf       	out	0x3e, r31	; 62
    1a1c:	0f be       	out	0x3f, r0	; 63
    1a1e:	ed bf       	out	0x3d, r30	; 61
    1a20:	8a e6       	ldi	r24, 0x6A	; 106
    1a22:	64 e0       	ldi	r22, 0x04	; 4
    1a24:	0e 94 81 05 	call	0xb02	; 0xb02 <GLCD_GoTo>
		GLCD_WriteString5x7(" mA ");
    1a28:	8c ea       	ldi	r24, 0xAC	; 172
    1a2a:	90 e0       	ldi	r25, 0x00	; 0
    1a2c:	0e 94 f6 05 	call	0xbec	; 0xbec <GLCD_WriteString5x7>
	}
	GLCD_GoTo(12, 2);
    1a30:	8c e0       	ldi	r24, 0x0C	; 12
    1a32:	62 e0       	ldi	r22, 0x02	; 2
    1a34:	0e 94 81 05 	call	0xb02	; 0xb02 <GLCD_GoTo>
	GLCD_WriteString19x24(LCD);
    1a38:	8a e7       	ldi	r24, 0x7A	; 122
    1a3a:	92 e0       	ldi	r25, 0x02	; 2
    1a3c:	0e 94 92 06 	call	0xd24	; 0xd24 <GLCD_WriteString19x24>
}
    1a40:	df 91       	pop	r29
    1a42:	cf 91       	pop	r28
    1a44:	1f 91       	pop	r17
    1a46:	0f 91       	pop	r16
    1a48:	ff 90       	pop	r15
    1a4a:	ef 90       	pop	r14
    1a4c:	df 90       	pop	r13
    1a4e:	cf 90       	pop	r12
    1a50:	08 95       	ret

00001a52 <Dsp_Offset_Gain>:

//쨮퀚 턄절챹 줮찔촾.
void Dsp_Offset_Gain(){
    1a52:	0f 93       	push	r16
    1a54:	1f 93       	push	r17
    1a56:	cf 93       	push	r28
    1a58:	df 93       	push	r29
	
	LCD_DefaultScreen("OFFSET&GAIN SET", "", "1", "", "NEXT");
    1a5a:	2c e8       	ldi	r18, 0x8C	; 140
    1a5c:	30 e0       	ldi	r19, 0x00	; 0
    1a5e:	81 eb       	ldi	r24, 0xB1	; 177
    1a60:	90 e0       	ldi	r25, 0x00	; 0
    1a62:	b9 01       	movw	r22, r18
    1a64:	41 ec       	ldi	r20, 0xC1	; 193
    1a66:	50 e0       	ldi	r21, 0x00	; 0
    1a68:	03 ec       	ldi	r16, 0xC3	; 195
    1a6a:	10 e0       	ldi	r17, 0x00	; 0
    1a6c:	0e 94 b2 08 	call	0x1164	; 0x1164 <LCD_DefaultScreen>

	sprintf(LCD, "1. OFFSET : %04x", Get_Offset(CH0));
    1a70:	80 e0       	ldi	r24, 0x00	; 0
    1a72:	0e 94 5d 07 	call	0xeba	; 0xeba <Get_Offset>
    1a76:	00 d0       	rcall	.+0      	; 0x1a78 <Dsp_Offset_Gain+0x26>
    1a78:	00 d0       	rcall	.+0      	; 0x1a7a <Dsp_Offset_Gain+0x28>
    1a7a:	00 d0       	rcall	.+0      	; 0x1a7c <Dsp_Offset_Gain+0x2a>
    1a7c:	ed b7       	in	r30, 0x3d	; 61
    1a7e:	fe b7       	in	r31, 0x3e	; 62
    1a80:	31 96       	adiw	r30, 0x01	; 1
    1a82:	ca e7       	ldi	r28, 0x7A	; 122
    1a84:	d2 e0       	ldi	r29, 0x02	; 2
    1a86:	ad b7       	in	r26, 0x3d	; 61
    1a88:	be b7       	in	r27, 0x3e	; 62
    1a8a:	12 96       	adiw	r26, 0x02	; 2
    1a8c:	dc 93       	st	X, r29
    1a8e:	ce 93       	st	-X, r28
    1a90:	11 97       	sbiw	r26, 0x01	; 1
    1a92:	28 ec       	ldi	r18, 0xC8	; 200
    1a94:	30 e0       	ldi	r19, 0x00	; 0
    1a96:	33 83       	std	Z+3, r19	; 0x03
    1a98:	22 83       	std	Z+2, r18	; 0x02
    1a9a:	95 83       	std	Z+5, r25	; 0x05
    1a9c:	84 83       	std	Z+4, r24	; 0x04
    1a9e:	0e 94 57 17 	call	0x2eae	; 0x2eae <sprintf>
	GLCD_GoTo(12, 2);
    1aa2:	8d b7       	in	r24, 0x3d	; 61
    1aa4:	9e b7       	in	r25, 0x3e	; 62
    1aa6:	06 96       	adiw	r24, 0x06	; 6
    1aa8:	0f b6       	in	r0, 0x3f	; 63
    1aaa:	f8 94       	cli
    1aac:	9e bf       	out	0x3e, r25	; 62
    1aae:	0f be       	out	0x3f, r0	; 63
    1ab0:	8d bf       	out	0x3d, r24	; 61
    1ab2:	8c e0       	ldi	r24, 0x0C	; 12
    1ab4:	62 e0       	ldi	r22, 0x02	; 2
    1ab6:	0e 94 81 05 	call	0xb02	; 0xb02 <GLCD_GoTo>
	GLCD_WriteString5x7(LCD);
    1aba:	ce 01       	movw	r24, r28
    1abc:	0e 94 f6 05 	call	0xbec	; 0xbec <GLCD_WriteString5x7>

	//sprintf(LCD, "2. GAIN : %04x", Get_Gain());
	//GLCD_GoTo(12, 3);
	//GLCD_WriteString5x7(LCD);

	sprintf(LCD, "DATA : %08lX", ldc_data);
    1ac0:	ad b7       	in	r26, 0x3d	; 61
    1ac2:	be b7       	in	r27, 0x3e	; 62
    1ac4:	18 97       	sbiw	r26, 0x08	; 8
    1ac6:	0f b6       	in	r0, 0x3f	; 63
    1ac8:	f8 94       	cli
    1aca:	be bf       	out	0x3e, r27	; 62
    1acc:	0f be       	out	0x3f, r0	; 63
    1ace:	ad bf       	out	0x3d, r26	; 61
    1ad0:	ed b7       	in	r30, 0x3d	; 61
    1ad2:	fe b7       	in	r31, 0x3e	; 62
    1ad4:	31 96       	adiw	r30, 0x01	; 1
    1ad6:	12 96       	adiw	r26, 0x02	; 2
    1ad8:	dc 93       	st	X, r29
    1ada:	ce 93       	st	-X, r28
    1adc:	11 97       	sbiw	r26, 0x01	; 1
    1ade:	89 ed       	ldi	r24, 0xD9	; 217
    1ae0:	90 e0       	ldi	r25, 0x00	; 0
    1ae2:	93 83       	std	Z+3, r25	; 0x03
    1ae4:	82 83       	std	Z+2, r24	; 0x02
    1ae6:	80 91 8e 02 	lds	r24, 0x028E
    1aea:	90 91 8f 02 	lds	r25, 0x028F
    1aee:	a0 91 90 02 	lds	r26, 0x0290
    1af2:	b0 91 91 02 	lds	r27, 0x0291
    1af6:	84 83       	std	Z+4, r24	; 0x04
    1af8:	95 83       	std	Z+5, r25	; 0x05
    1afa:	a6 83       	std	Z+6, r26	; 0x06
    1afc:	b7 83       	std	Z+7, r27	; 0x07
    1afe:	0e 94 57 17 	call	0x2eae	; 0x2eae <sprintf>
	GLCD_GoTo(12, 5);
    1b02:	8d b7       	in	r24, 0x3d	; 61
    1b04:	9e b7       	in	r25, 0x3e	; 62
    1b06:	08 96       	adiw	r24, 0x08	; 8
    1b08:	0f b6       	in	r0, 0x3f	; 63
    1b0a:	f8 94       	cli
    1b0c:	9e bf       	out	0x3e, r25	; 62
    1b0e:	0f be       	out	0x3f, r0	; 63
    1b10:	8d bf       	out	0x3d, r24	; 61
    1b12:	8c e0       	ldi	r24, 0x0C	; 12
    1b14:	65 e0       	ldi	r22, 0x05	; 5
    1b16:	0e 94 81 05 	call	0xb02	; 0xb02 <GLCD_GoTo>
	GLCD_WriteString5x7(LCD);
    1b1a:	ce 01       	movw	r24, r28
    1b1c:	0e 94 f6 05 	call	0xbec	; 0xbec <GLCD_WriteString5x7>
}
    1b20:	df 91       	pop	r29
    1b22:	cf 91       	pop	r28
    1b24:	1f 91       	pop	r17
    1b26:	0f 91       	pop	r16
    1b28:	08 95       	ret

00001b2a <Dsp_Offset>:

void Dsp_Offset(){
    1b2a:	af 92       	push	r10
    1b2c:	bf 92       	push	r11
    1b2e:	cf 92       	push	r12
    1b30:	df 92       	push	r13
    1b32:	ef 92       	push	r14
    1b34:	ff 92       	push	r15
    1b36:	0f 93       	push	r16
    1b38:	1f 93       	push	r17
    1b3a:	cf 93       	push	r28
    1b3c:	df 93       	push	r29
	uint8_t i;
	
	LCD_DefaultScreen("OFFSET SETTING", "SAVE", "UP", "->", "EXIT");
    1b3e:	86 ee       	ldi	r24, 0xE6	; 230
    1b40:	90 e0       	ldi	r25, 0x00	; 0
    1b42:	65 ef       	ldi	r22, 0xF5	; 245
    1b44:	70 e0       	ldi	r23, 0x00	; 0
    1b46:	4a ef       	ldi	r20, 0xFA	; 250
    1b48:	50 e0       	ldi	r21, 0x00	; 0
    1b4a:	2d ef       	ldi	r18, 0xFD	; 253
    1b4c:	30 e0       	ldi	r19, 0x00	; 0
    1b4e:	00 e0       	ldi	r16, 0x00	; 0
    1b50:	11 e0       	ldi	r17, 0x01	; 1
    1b52:	0e 94 b2 08 	call	0x1164	; 0x1164 <LCD_DefaultScreen>
    1b56:	0f 2e       	mov	r0, r31
    1b58:	f0 e2       	ldi	r31, 0x20	; 32
    1b5a:	ef 2e       	mov	r14, r31
    1b5c:	f2 e0       	ldi	r31, 0x02	; 2
    1b5e:	ff 2e       	mov	r15, r31
    1b60:	f0 2d       	mov	r31, r0
    1b62:	ce e1       	ldi	r28, 0x1E	; 30
    1b64:	00 e0       	ldi	r16, 0x00	; 0
    1b66:	10 e0       	ldi	r17, 0x00	; 0

	for(i=0 ; i<4 ; i++){
		sprintf(LCD, "%x", offset_arr[i]);
    1b68:	0f 2e       	mov	r0, r31
    1b6a:	fa e7       	ldi	r31, 0x7A	; 122
    1b6c:	cf 2e       	mov	r12, r31
    1b6e:	f2 e0       	ldi	r31, 0x02	; 2
    1b70:	df 2e       	mov	r13, r31
    1b72:	f0 2d       	mov	r31, r0
    1b74:	0f 2e       	mov	r0, r31
    1b76:	f5 e0       	ldi	r31, 0x05	; 5
    1b78:	af 2e       	mov	r10, r31
    1b7a:	f1 e0       	ldi	r31, 0x01	; 1
    1b7c:	bf 2e       	mov	r11, r31
    1b7e:	f0 2d       	mov	r31, r0
    1b80:	d7 01       	movw	r26, r14
    1b82:	8d 91       	ld	r24, X+
    1b84:	9d 91       	ld	r25, X+
    1b86:	7d 01       	movw	r14, r26
    1b88:	00 d0       	rcall	.+0      	; 0x1b8a <Dsp_Offset+0x60>
    1b8a:	00 d0       	rcall	.+0      	; 0x1b8c <Dsp_Offset+0x62>
    1b8c:	00 d0       	rcall	.+0      	; 0x1b8e <Dsp_Offset+0x64>
    1b8e:	ed b7       	in	r30, 0x3d	; 61
    1b90:	fe b7       	in	r31, 0x3e	; 62
    1b92:	31 96       	adiw	r30, 0x01	; 1
    1b94:	ad b7       	in	r26, 0x3d	; 61
    1b96:	be b7       	in	r27, 0x3e	; 62
    1b98:	12 96       	adiw	r26, 0x02	; 2
    1b9a:	dc 92       	st	X, r13
    1b9c:	ce 92       	st	-X, r12
    1b9e:	11 97       	sbiw	r26, 0x01	; 1
    1ba0:	b3 82       	std	Z+3, r11	; 0x03
    1ba2:	a2 82       	std	Z+2, r10	; 0x02
    1ba4:	95 83       	std	Z+5, r25	; 0x05
    1ba6:	84 83       	std	Z+4, r24	; 0x04
    1ba8:	0e 94 57 17 	call	0x2eae	; 0x2eae <sprintf>
		if(i==position){
    1bac:	ed b7       	in	r30, 0x3d	; 61
    1bae:	fe b7       	in	r31, 0x3e	; 62
    1bb0:	36 96       	adiw	r30, 0x06	; 6
    1bb2:	0f b6       	in	r0, 0x3f	; 63
    1bb4:	f8 94       	cli
    1bb6:	fe bf       	out	0x3e, r31	; 62
    1bb8:	0f be       	out	0x3f, r0	; 63
    1bba:	ed bf       	out	0x3d, r30	; 61
    1bbc:	80 91 2d 02 	lds	r24, 0x022D
    1bc0:	90 91 2e 02 	lds	r25, 0x022E
    1bc4:	08 17       	cp	r16, r24
    1bc6:	19 07       	cpc	r17, r25
    1bc8:	41 f4       	brne	.+16     	; 0x1bda <Dsp_Offset+0xb0>
			GLCD_GoTo(30 + (20*(i)), 2);
    1bca:	8c 2f       	mov	r24, r28
    1bcc:	62 e0       	ldi	r22, 0x02	; 2
    1bce:	0e 94 81 05 	call	0xb02	; 0xb02 <GLCD_GoTo>
			GLCD_InvWriteString5x7(LCD);
    1bd2:	c6 01       	movw	r24, r12
    1bd4:	0e 94 05 06 	call	0xc0a	; 0xc0a <GLCD_InvWriteString5x7>
    1bd8:	07 c0       	rjmp	.+14     	; 0x1be8 <Dsp_Offset+0xbe>
		}
		else{
			GLCD_GoTo(30 + (20*(i)), 2);
    1bda:	8c 2f       	mov	r24, r28
    1bdc:	62 e0       	ldi	r22, 0x02	; 2
    1bde:	0e 94 81 05 	call	0xb02	; 0xb02 <GLCD_GoTo>
			GLCD_WriteString5x7(LCD);
    1be2:	c6 01       	movw	r24, r12
    1be4:	0e 94 f6 05 	call	0xbec	; 0xbec <GLCD_WriteString5x7>
    1be8:	0f 5f       	subi	r16, 0xFF	; 255
    1bea:	1f 4f       	sbci	r17, 0xFF	; 255
    1bec:	cc 5e       	subi	r28, 0xEC	; 236
void Dsp_Offset(){
	uint8_t i;
	
	LCD_DefaultScreen("OFFSET SETTING", "SAVE", "UP", "->", "EXIT");

	for(i=0 ; i<4 ; i++){
    1bee:	ce 36       	cpi	r28, 0x6E	; 110
    1bf0:	39 f6       	brne	.-114    	; 0x1b80 <Dsp_Offset+0x56>
			GLCD_GoTo(30 + (20*(i)), 2);
			GLCD_WriteString5x7(LCD);
		}
	}

	sprintf(LCD, "CUR OFFSET : %04X", Get_Offset(CH0));
    1bf2:	80 e0       	ldi	r24, 0x00	; 0
    1bf4:	0e 94 5d 07 	call	0xeba	; 0xeba <Get_Offset>
    1bf8:	00 d0       	rcall	.+0      	; 0x1bfa <Dsp_Offset+0xd0>
    1bfa:	00 d0       	rcall	.+0      	; 0x1bfc <Dsp_Offset+0xd2>
    1bfc:	00 d0       	rcall	.+0      	; 0x1bfe <Dsp_Offset+0xd4>
    1bfe:	ed b7       	in	r30, 0x3d	; 61
    1c00:	fe b7       	in	r31, 0x3e	; 62
    1c02:	31 96       	adiw	r30, 0x01	; 1
    1c04:	ca e7       	ldi	r28, 0x7A	; 122
    1c06:	d2 e0       	ldi	r29, 0x02	; 2
    1c08:	ad b7       	in	r26, 0x3d	; 61
    1c0a:	be b7       	in	r27, 0x3e	; 62
    1c0c:	12 96       	adiw	r26, 0x02	; 2
    1c0e:	dc 93       	st	X, r29
    1c10:	ce 93       	st	-X, r28
    1c12:	11 97       	sbiw	r26, 0x01	; 1
    1c14:	28 e0       	ldi	r18, 0x08	; 8
    1c16:	31 e0       	ldi	r19, 0x01	; 1
    1c18:	33 83       	std	Z+3, r19	; 0x03
    1c1a:	22 83       	std	Z+2, r18	; 0x02
    1c1c:	95 83       	std	Z+5, r25	; 0x05
    1c1e:	84 83       	std	Z+4, r24	; 0x04
    1c20:	0e 94 57 17 	call	0x2eae	; 0x2eae <sprintf>
	GLCD_GoTo(12, 3);
    1c24:	ed b7       	in	r30, 0x3d	; 61
    1c26:	fe b7       	in	r31, 0x3e	; 62
    1c28:	36 96       	adiw	r30, 0x06	; 6
    1c2a:	0f b6       	in	r0, 0x3f	; 63
    1c2c:	f8 94       	cli
    1c2e:	fe bf       	out	0x3e, r31	; 62
    1c30:	0f be       	out	0x3f, r0	; 63
    1c32:	ed bf       	out	0x3d, r30	; 61
    1c34:	8c e0       	ldi	r24, 0x0C	; 12
    1c36:	63 e0       	ldi	r22, 0x03	; 3
    1c38:	0e 94 81 05 	call	0xb02	; 0xb02 <GLCD_GoTo>
	GLCD_WriteString5x7(LCD);
    1c3c:	ce 01       	movw	r24, r28
    1c3e:	0e 94 f6 05 	call	0xbec	; 0xbec <GLCD_WriteString5x7>

	sprintf(LCD, "DATA : %08lX", ldc_data);
    1c42:	8d b7       	in	r24, 0x3d	; 61
    1c44:	9e b7       	in	r25, 0x3e	; 62
    1c46:	08 97       	sbiw	r24, 0x08	; 8
    1c48:	0f b6       	in	r0, 0x3f	; 63
    1c4a:	f8 94       	cli
    1c4c:	9e bf       	out	0x3e, r25	; 62
    1c4e:	0f be       	out	0x3f, r0	; 63
    1c50:	8d bf       	out	0x3d, r24	; 61
    1c52:	ed b7       	in	r30, 0x3d	; 61
    1c54:	fe b7       	in	r31, 0x3e	; 62
    1c56:	31 96       	adiw	r30, 0x01	; 1
    1c58:	ad b7       	in	r26, 0x3d	; 61
    1c5a:	be b7       	in	r27, 0x3e	; 62
    1c5c:	12 96       	adiw	r26, 0x02	; 2
    1c5e:	dc 93       	st	X, r29
    1c60:	ce 93       	st	-X, r28
    1c62:	11 97       	sbiw	r26, 0x01	; 1
    1c64:	89 ed       	ldi	r24, 0xD9	; 217
    1c66:	90 e0       	ldi	r25, 0x00	; 0
    1c68:	93 83       	std	Z+3, r25	; 0x03
    1c6a:	82 83       	std	Z+2, r24	; 0x02
    1c6c:	80 91 8e 02 	lds	r24, 0x028E
    1c70:	90 91 8f 02 	lds	r25, 0x028F
    1c74:	a0 91 90 02 	lds	r26, 0x0290
    1c78:	b0 91 91 02 	lds	r27, 0x0291
    1c7c:	84 83       	std	Z+4, r24	; 0x04
    1c7e:	95 83       	std	Z+5, r25	; 0x05
    1c80:	a6 83       	std	Z+6, r26	; 0x06
    1c82:	b7 83       	std	Z+7, r27	; 0x07
    1c84:	0e 94 57 17 	call	0x2eae	; 0x2eae <sprintf>
	GLCD_GoTo(12, 4);
    1c88:	ed b7       	in	r30, 0x3d	; 61
    1c8a:	fe b7       	in	r31, 0x3e	; 62
    1c8c:	38 96       	adiw	r30, 0x08	; 8
    1c8e:	0f b6       	in	r0, 0x3f	; 63
    1c90:	f8 94       	cli
    1c92:	fe bf       	out	0x3e, r31	; 62
    1c94:	0f be       	out	0x3f, r0	; 63
    1c96:	ed bf       	out	0x3d, r30	; 61
    1c98:	8c e0       	ldi	r24, 0x0C	; 12
    1c9a:	64 e0       	ldi	r22, 0x04	; 4
    1c9c:	0e 94 81 05 	call	0xb02	; 0xb02 <GLCD_GoTo>
	GLCD_WriteString5x7(LCD);
    1ca0:	ce 01       	movw	r24, r28
    1ca2:	0e 94 f6 05 	call	0xbec	; 0xbec <GLCD_WriteString5x7>
}
    1ca6:	df 91       	pop	r29
    1ca8:	cf 91       	pop	r28
    1caa:	1f 91       	pop	r17
    1cac:	0f 91       	pop	r16
    1cae:	ff 90       	pop	r15
    1cb0:	ef 90       	pop	r14
    1cb2:	df 90       	pop	r13
    1cb4:	cf 90       	pop	r12
    1cb6:	bf 90       	pop	r11
    1cb8:	af 90       	pop	r10
    1cba:	08 95       	ret

00001cbc <Dsp_Gain>:

void Dsp_Gain(){
    1cbc:	af 92       	push	r10
    1cbe:	bf 92       	push	r11
    1cc0:	cf 92       	push	r12
    1cc2:	df 92       	push	r13
    1cc4:	ef 92       	push	r14
    1cc6:	ff 92       	push	r15
    1cc8:	0f 93       	push	r16
    1cca:	1f 93       	push	r17
    1ccc:	cf 93       	push	r28
	uint8_t i;
	
	LCD_DefaultScreen("GAIN SETTING", "SAVE", "<-", "->", "EXIT");
    1cce:	8a e1       	ldi	r24, 0x1A	; 26
    1cd0:	91 e0       	ldi	r25, 0x01	; 1
    1cd2:	65 ef       	ldi	r22, 0xF5	; 245
    1cd4:	70 e0       	ldi	r23, 0x00	; 0
    1cd6:	47 e2       	ldi	r20, 0x27	; 39
    1cd8:	51 e0       	ldi	r21, 0x01	; 1
    1cda:	2d ef       	ldi	r18, 0xFD	; 253
    1cdc:	30 e0       	ldi	r19, 0x00	; 0
    1cde:	00 e0       	ldi	r16, 0x00	; 0
    1ce0:	11 e0       	ldi	r17, 0x01	; 1
    1ce2:	0e 94 b2 08 	call	0x1164	; 0x1164 <LCD_DefaultScreen>
    1ce6:	0f 2e       	mov	r0, r31
    1ce8:	fa e1       	ldi	r31, 0x1A	; 26
    1cea:	ef 2e       	mov	r14, r31
    1cec:	f2 e0       	ldi	r31, 0x02	; 2
    1cee:	ff 2e       	mov	r15, r31
    1cf0:	f0 2d       	mov	r31, r0
    1cf2:	ce e1       	ldi	r28, 0x1E	; 30
    1cf4:	00 e0       	ldi	r16, 0x00	; 0
    1cf6:	10 e0       	ldi	r17, 0x00	; 0
	
	for(i=0; i<4; i++){
		sprintf(LCD, "%02d", arr[i]);
    1cf8:	0f 2e       	mov	r0, r31
    1cfa:	fa e7       	ldi	r31, 0x7A	; 122
    1cfc:	cf 2e       	mov	r12, r31
    1cfe:	f2 e0       	ldi	r31, 0x02	; 2
    1d00:	df 2e       	mov	r13, r31
    1d02:	f0 2d       	mov	r31, r0
    1d04:	0f 2e       	mov	r0, r31
    1d06:	fa e2       	ldi	r31, 0x2A	; 42
    1d08:	af 2e       	mov	r10, r31
    1d0a:	f1 e0       	ldi	r31, 0x01	; 1
    1d0c:	bf 2e       	mov	r11, r31
    1d0e:	f0 2d       	mov	r31, r0
    1d10:	d7 01       	movw	r26, r14
    1d12:	8d 91       	ld	r24, X+
    1d14:	7d 01       	movw	r14, r26
    1d16:	00 d0       	rcall	.+0      	; 0x1d18 <Dsp_Gain+0x5c>
    1d18:	00 d0       	rcall	.+0      	; 0x1d1a <Dsp_Gain+0x5e>
    1d1a:	00 d0       	rcall	.+0      	; 0x1d1c <Dsp_Gain+0x60>
    1d1c:	ed b7       	in	r30, 0x3d	; 61
    1d1e:	fe b7       	in	r31, 0x3e	; 62
    1d20:	31 96       	adiw	r30, 0x01	; 1
    1d22:	ad b7       	in	r26, 0x3d	; 61
    1d24:	be b7       	in	r27, 0x3e	; 62
    1d26:	12 96       	adiw	r26, 0x02	; 2
    1d28:	dc 92       	st	X, r13
    1d2a:	ce 92       	st	-X, r12
    1d2c:	11 97       	sbiw	r26, 0x01	; 1
    1d2e:	b3 82       	std	Z+3, r11	; 0x03
    1d30:	a2 82       	std	Z+2, r10	; 0x02
    1d32:	84 83       	std	Z+4, r24	; 0x04
    1d34:	15 82       	std	Z+5, r1	; 0x05
    1d36:	0e 94 57 17 	call	0x2eae	; 0x2eae <sprintf>
		if(i==position){
    1d3a:	ed b7       	in	r30, 0x3d	; 61
    1d3c:	fe b7       	in	r31, 0x3e	; 62
    1d3e:	36 96       	adiw	r30, 0x06	; 6
    1d40:	0f b6       	in	r0, 0x3f	; 63
    1d42:	f8 94       	cli
    1d44:	fe bf       	out	0x3e, r31	; 62
    1d46:	0f be       	out	0x3f, r0	; 63
    1d48:	ed bf       	out	0x3d, r30	; 61
    1d4a:	80 91 2d 02 	lds	r24, 0x022D
    1d4e:	90 91 2e 02 	lds	r25, 0x022E
    1d52:	08 17       	cp	r16, r24
    1d54:	19 07       	cpc	r17, r25
    1d56:	41 f4       	brne	.+16     	; 0x1d68 <Dsp_Gain+0xac>
			GLCD_GoTo(30 + (20*(i)), 3);
    1d58:	8c 2f       	mov	r24, r28
    1d5a:	63 e0       	ldi	r22, 0x03	; 3
    1d5c:	0e 94 81 05 	call	0xb02	; 0xb02 <GLCD_GoTo>
			GLCD_InvWriteString5x7(LCD);
    1d60:	c6 01       	movw	r24, r12
    1d62:	0e 94 05 06 	call	0xc0a	; 0xc0a <GLCD_InvWriteString5x7>
    1d66:	07 c0       	rjmp	.+14     	; 0x1d76 <Dsp_Gain+0xba>
		}
		else{
			GLCD_GoTo(30 + (20*(i)), 3);
    1d68:	8c 2f       	mov	r24, r28
    1d6a:	63 e0       	ldi	r22, 0x03	; 3
    1d6c:	0e 94 81 05 	call	0xb02	; 0xb02 <GLCD_GoTo>
			GLCD_WriteString5x7(LCD);
    1d70:	c6 01       	movw	r24, r12
    1d72:	0e 94 f6 05 	call	0xbec	; 0xbec <GLCD_WriteString5x7>
    1d76:	0f 5f       	subi	r16, 0xFF	; 255
    1d78:	1f 4f       	sbci	r17, 0xFF	; 255
    1d7a:	cc 5e       	subi	r28, 0xEC	; 236
void Dsp_Gain(){
	uint8_t i;
	
	LCD_DefaultScreen("GAIN SETTING", "SAVE", "<-", "->", "EXIT");
	
	for(i=0; i<4; i++){
    1d7c:	ce 36       	cpi	r28, 0x6E	; 110
    1d7e:	41 f6       	brne	.-112    	; 0x1d10 <Dsp_Gain+0x54>
		else{
			GLCD_GoTo(30 + (20*(i)), 3);
			GLCD_WriteString5x7(LCD);
		}
	}
}
    1d80:	cf 91       	pop	r28
    1d82:	1f 91       	pop	r17
    1d84:	0f 91       	pop	r16
    1d86:	ff 90       	pop	r15
    1d88:	ef 90       	pop	r14
    1d8a:	df 90       	pop	r13
    1d8c:	cf 90       	pop	r12
    1d8e:	bf 90       	pop	r11
    1d90:	af 90       	pop	r10
    1d92:	08 95       	ret

00001d94 <Dsp_Setting>:

//쨮퀚 턄절챹 줮찔촾.
void Dsp_Setting(){
    1d94:	cf 92       	push	r12
    1d96:	df 92       	push	r13
    1d98:	ef 92       	push	r14
    1d9a:	ff 92       	push	r15
    1d9c:	0f 93       	push	r16
    1d9e:	1f 93       	push	r17
    1da0:	cf 93       	push	r28
    1da2:	df 93       	push	r29
	int i;

	LCD_DefaultScreen("SETTING MODE", "SAVE", "<-", "->", "EXIT");
    1da4:	8f e2       	ldi	r24, 0x2F	; 47
    1da6:	91 e0       	ldi	r25, 0x01	; 1
    1da8:	65 ef       	ldi	r22, 0xF5	; 245
    1daa:	70 e0       	ldi	r23, 0x00	; 0
    1dac:	47 e2       	ldi	r20, 0x27	; 39
    1dae:	51 e0       	ldi	r21, 0x01	; 1
    1db0:	2d ef       	ldi	r18, 0xFD	; 253
    1db2:	30 e0       	ldi	r19, 0x00	; 0
    1db4:	00 e0       	ldi	r16, 0x00	; 0
    1db6:	11 e0       	ldi	r17, 0x01	; 1
    1db8:	0e 94 b2 08 	call	0x1164	; 0x1164 <LCD_DefaultScreen>

	for(i = 0; i<LDC_LENGTH ; i++){
    1dbc:	c0 e0       	ldi	r28, 0x00	; 0
    1dbe:	d0 e0       	ldi	r29, 0x00	; 0
		sprintf(LCD, "%02d", i);
    1dc0:	0a e7       	ldi	r16, 0x7A	; 122
    1dc2:	12 e0       	ldi	r17, 0x02	; 2
    1dc4:	0f 2e       	mov	r0, r31
    1dc6:	fa e2       	ldi	r31, 0x2A	; 42
    1dc8:	ef 2e       	mov	r14, r31
    1dca:	f1 e0       	ldi	r31, 0x01	; 1
    1dcc:	ff 2e       	mov	r15, r31
    1dce:	f0 2d       	mov	r31, r0
		if(i==position){
			GLCD_GoTo(16 + (18*(i%6)), 2 + (i/6));
			GLCD_InvWriteString5x7(LCD);
		}
		else{
			GLCD_GoTo(16 + (18*(i%6)), 2 + (i/6));
    1dd0:	0f 2e       	mov	r0, r31
    1dd2:	f6 e0       	ldi	r31, 0x06	; 6
    1dd4:	cf 2e       	mov	r12, r31
    1dd6:	dd 24       	eor	r13, r13
    1dd8:	f0 2d       	mov	r31, r0
	int i;

	LCD_DefaultScreen("SETTING MODE", "SAVE", "<-", "->", "EXIT");

	for(i = 0; i<LDC_LENGTH ; i++){
		sprintf(LCD, "%02d", i);
    1dda:	00 d0       	rcall	.+0      	; 0x1ddc <Dsp_Setting+0x48>
    1ddc:	00 d0       	rcall	.+0      	; 0x1dde <Dsp_Setting+0x4a>
    1dde:	00 d0       	rcall	.+0      	; 0x1de0 <Dsp_Setting+0x4c>
    1de0:	ed b7       	in	r30, 0x3d	; 61
    1de2:	fe b7       	in	r31, 0x3e	; 62
    1de4:	31 96       	adiw	r30, 0x01	; 1
    1de6:	ad b7       	in	r26, 0x3d	; 61
    1de8:	be b7       	in	r27, 0x3e	; 62
    1dea:	12 96       	adiw	r26, 0x02	; 2
    1dec:	1c 93       	st	X, r17
    1dee:	0e 93       	st	-X, r16
    1df0:	11 97       	sbiw	r26, 0x01	; 1
    1df2:	f3 82       	std	Z+3, r15	; 0x03
    1df4:	e2 82       	std	Z+2, r14	; 0x02
    1df6:	d5 83       	std	Z+5, r29	; 0x05
    1df8:	c4 83       	std	Z+4, r28	; 0x04
    1dfa:	0e 94 57 17 	call	0x2eae	; 0x2eae <sprintf>
		if(i==position){
    1dfe:	8d b7       	in	r24, 0x3d	; 61
    1e00:	9e b7       	in	r25, 0x3e	; 62
    1e02:	06 96       	adiw	r24, 0x06	; 6
    1e04:	0f b6       	in	r0, 0x3f	; 63
    1e06:	f8 94       	cli
    1e08:	9e bf       	out	0x3e, r25	; 62
    1e0a:	0f be       	out	0x3f, r0	; 63
    1e0c:	8d bf       	out	0x3d, r24	; 61
    1e0e:	80 91 2d 02 	lds	r24, 0x022D
    1e12:	90 91 2e 02 	lds	r25, 0x022E
    1e16:	c8 17       	cp	r28, r24
    1e18:	d9 07       	cpc	r29, r25
    1e1a:	91 f4       	brne	.+36     	; 0x1e40 <Dsp_Setting+0xac>
			GLCD_GoTo(16 + (18*(i%6)), 2 + (i/6));
    1e1c:	ce 01       	movw	r24, r28
    1e1e:	b6 01       	movw	r22, r12
    1e20:	0e 94 30 17 	call	0x2e60	; 0x2e60 <__divmodhi4>
    1e24:	88 0f       	add	r24, r24
    1e26:	98 2f       	mov	r25, r24
    1e28:	99 0f       	add	r25, r25
    1e2a:	99 0f       	add	r25, r25
    1e2c:	99 0f       	add	r25, r25
    1e2e:	89 0f       	add	r24, r25
    1e30:	6e 5f       	subi	r22, 0xFE	; 254
    1e32:	80 5f       	subi	r24, 0xF0	; 240
    1e34:	0e 94 81 05 	call	0xb02	; 0xb02 <GLCD_GoTo>
			GLCD_InvWriteString5x7(LCD);
    1e38:	c8 01       	movw	r24, r16
    1e3a:	0e 94 05 06 	call	0xc0a	; 0xc0a <GLCD_InvWriteString5x7>
    1e3e:	11 c0       	rjmp	.+34     	; 0x1e62 <Dsp_Setting+0xce>
		}
		else{
			GLCD_GoTo(16 + (18*(i%6)), 2 + (i/6));
    1e40:	ce 01       	movw	r24, r28
    1e42:	b6 01       	movw	r22, r12
    1e44:	0e 94 30 17 	call	0x2e60	; 0x2e60 <__divmodhi4>
    1e48:	88 0f       	add	r24, r24
    1e4a:	98 2f       	mov	r25, r24
    1e4c:	99 0f       	add	r25, r25
    1e4e:	99 0f       	add	r25, r25
    1e50:	99 0f       	add	r25, r25
    1e52:	89 0f       	add	r24, r25
    1e54:	6e 5f       	subi	r22, 0xFE	; 254
    1e56:	80 5f       	subi	r24, 0xF0	; 240
    1e58:	0e 94 81 05 	call	0xb02	; 0xb02 <GLCD_GoTo>
			GLCD_WriteString5x7(LCD);
    1e5c:	c8 01       	movw	r24, r16
    1e5e:	0e 94 f6 05 	call	0xbec	; 0xbec <GLCD_WriteString5x7>
void Dsp_Setting(){
	int i;

	LCD_DefaultScreen("SETTING MODE", "SAVE", "<-", "->", "EXIT");

	for(i = 0; i<LDC_LENGTH ; i++){
    1e62:	21 96       	adiw	r28, 0x01	; 1
    1e64:	cb 30       	cpi	r28, 0x0B	; 11
    1e66:	d1 05       	cpc	r29, r1
    1e68:	09 f0       	breq	.+2      	; 0x1e6c <Dsp_Setting+0xd8>
    1e6a:	b7 cf       	rjmp	.-146    	; 0x1dda <Dsp_Setting+0x46>
			GLCD_GoTo(16 + (18*(i%6)), 2 + (i/6));
			GLCD_WriteString5x7(LCD);
		}
		
	}
}
    1e6c:	df 91       	pop	r29
    1e6e:	cf 91       	pop	r28
    1e70:	1f 91       	pop	r17
    1e72:	0f 91       	pop	r16
    1e74:	ff 90       	pop	r15
    1e76:	ef 90       	pop	r14
    1e78:	df 90       	pop	r13
    1e7a:	cf 90       	pop	r12
    1e7c:	08 95       	ret

00001e7e <Dsp_Debugging>:

//왫좼쐚턄절챹 줮찔촾.
void Dsp_Debugging(){
    1e7e:	af 92       	push	r10
    1e80:	bf 92       	push	r11
    1e82:	df 92       	push	r13
    1e84:	ef 92       	push	r14
    1e86:	ff 92       	push	r15
    1e88:	0f 93       	push	r16
    1e8a:	1f 93       	push	r17
    1e8c:	cf 93       	push	r28
    1e8e:	df 93       	push	r29
	uint8_t i;
	
	if(reloadFlag){
    1e90:	80 91 33 02 	lds	r24, 0x0233
    1e94:	88 23       	and	r24, r24
    1e96:	f1 f1       	breq	.+124    	; 0x1f14 <Dsp_Debugging+0x96>
		config = Get_Config();
    1e98:	0e 94 84 07 	call	0xf08	; 0xf08 <Get_Config>
    1e9c:	90 93 96 02 	sts	0x0296, r25
    1ea0:	80 93 95 02 	sts	0x0295, r24
		divider = Get_Divider(CH0);
    1ea4:	80 e0       	ldi	r24, 0x00	; 0
    1ea6:	0e 94 78 07 	call	0xef0	; 0xef0 <Get_Divider>
    1eaa:	90 93 6e 02 	sts	0x026E, r25
    1eae:	80 93 6d 02 	sts	0x026D, r24
		settlecount = Get_SettleCount(CH0);
    1eb2:	80 e0       	ldi	r24, 0x00	; 0
    1eb4:	90 e0       	ldi	r25, 0x00	; 0
    1eb6:	0e 94 74 07 	call	0xee8	; 0xee8 <Get_SettleCount>
    1eba:	90 93 79 02 	sts	0x0279, r25
    1ebe:	80 93 78 02 	sts	0x0278, r24
		rcount = Get_RCount(CH0);
    1ec2:	80 e0       	ldi	r24, 0x00	; 0
    1ec4:	0e 94 70 07 	call	0xee0	; 0xee0 <Get_RCount>
    1ec8:	90 93 70 02 	sts	0x0270, r25
    1ecc:	80 93 6f 02 	sts	0x026F, r24
		error_conf = Get_Error_Config();
    1ed0:	0e 94 80 07 	call	0xf00	; 0xf00 <Get_Error_Config>
    1ed4:	90 93 73 02 	sts	0x0273, r25
    1ed8:	80 93 72 02 	sts	0x0272, r24
		mux_conf = Get_MUX();
    1edc:	0e 94 68 07 	call	0xed0	; 0xed0 <Get_MUX>
    1ee0:	90 93 39 02 	sts	0x0239, r25
    1ee4:	80 93 38 02 	sts	0x0238, r24
		i_drive	= Get_IDreive(CH0);
    1ee8:	80 e0       	ldi	r24, 0x00	; 0
    1eea:	0e 94 6c 07 	call	0xed8	; 0xed8 <Get_IDreive>
    1eee:	90 93 3b 02 	sts	0x023B, r25
    1ef2:	80 93 3a 02 	sts	0x023A, r24
		//ldc_data= Read_Data(DATA_CH0);
		status = Get_Status();
    1ef6:	0e 94 7c 07 	call	0xef8	; 0xef8 <Get_Status>
    1efa:	90 93 94 02 	sts	0x0294, r25
    1efe:	80 93 93 02 	sts	0x0293, r24
		//gain = Get_Gain();
		offset = Get_Offset(CH0);
    1f02:	80 e0       	ldi	r24, 0x00	; 0
    1f04:	0e 94 5d 07 	call	0xeba	; 0xeba <Get_Offset>
    1f08:	90 93 77 02 	sts	0x0277, r25
    1f0c:	80 93 76 02 	sts	0x0276, r24
		reloadFlag = FALSE;
    1f10:	10 92 33 02 	sts	0x0233, r1
	}

	LCD_DefaultScreen("Debug Mode", "REROAD", "", "", "EXIT");
    1f14:	2c e8       	ldi	r18, 0x8C	; 140
    1f16:	30 e0       	ldi	r19, 0x00	; 0
    1f18:	8c e3       	ldi	r24, 0x3C	; 60
    1f1a:	91 e0       	ldi	r25, 0x01	; 1
    1f1c:	67 e4       	ldi	r22, 0x47	; 71
    1f1e:	71 e0       	ldi	r23, 0x01	; 1
    1f20:	a9 01       	movw	r20, r18
    1f22:	00 e0       	ldi	r16, 0x00	; 0
    1f24:	11 e0       	ldi	r17, 0x01	; 1
    1f26:	0e 94 b2 08 	call	0x1164	; 0x1164 <LCD_DefaultScreen>
	
	switch(debugPage){
    1f2a:	80 91 74 02 	lds	r24, 0x0274
    1f2e:	90 91 75 02 	lds	r25, 0x0275
    1f32:	81 30       	cpi	r24, 0x01	; 1
    1f34:	91 05       	cpc	r25, r1
    1f36:	09 f4       	brne	.+2      	; 0x1f3a <Dsp_Debugging+0xbc>
    1f38:	ab c0       	rjmp	.+342    	; 0x2090 <Dsp_Debugging+0x212>
    1f3a:	81 30       	cpi	r24, 0x01	; 1
    1f3c:	91 05       	cpc	r25, r1
    1f3e:	48 f0       	brcs	.+18     	; 0x1f52 <Dsp_Debugging+0xd4>
    1f40:	82 30       	cpi	r24, 0x02	; 2
    1f42:	91 05       	cpc	r25, r1
    1f44:	09 f4       	brne	.+2      	; 0x1f48 <Dsp_Debugging+0xca>
    1f46:	4f c1       	rjmp	.+670    	; 0x21e6 <Dsp_Debugging+0x368>
    1f48:	83 30       	cpi	r24, 0x03	; 3
    1f4a:	91 05       	cpc	r25, r1
    1f4c:	09 f0       	breq	.+2      	; 0x1f50 <Dsp_Debugging+0xd2>
    1f4e:	ea c1       	rjmp	.+980    	; 0x2324 <Dsp_Debugging+0x4a6>
    1f50:	9b c1       	rjmp	.+822    	; 0x2288 <Dsp_Debugging+0x40a>
		case 0:
			sprintf(LCD, "CONFIG: %04X", config);
    1f52:	00 d0       	rcall	.+0      	; 0x1f54 <Dsp_Debugging+0xd6>
    1f54:	00 d0       	rcall	.+0      	; 0x1f56 <Dsp_Debugging+0xd8>
    1f56:	00 d0       	rcall	.+0      	; 0x1f58 <Dsp_Debugging+0xda>
    1f58:	ed b7       	in	r30, 0x3d	; 61
    1f5a:	fe b7       	in	r31, 0x3e	; 62
    1f5c:	31 96       	adiw	r30, 0x01	; 1
    1f5e:	ca e7       	ldi	r28, 0x7A	; 122
    1f60:	d2 e0       	ldi	r29, 0x02	; 2
    1f62:	ad b7       	in	r26, 0x3d	; 61
    1f64:	be b7       	in	r27, 0x3e	; 62
    1f66:	12 96       	adiw	r26, 0x02	; 2
    1f68:	dc 93       	st	X, r29
    1f6a:	ce 93       	st	-X, r28
    1f6c:	11 97       	sbiw	r26, 0x01	; 1
    1f6e:	8e e4       	ldi	r24, 0x4E	; 78
    1f70:	91 e0       	ldi	r25, 0x01	; 1
    1f72:	93 83       	std	Z+3, r25	; 0x03
    1f74:	82 83       	std	Z+2, r24	; 0x02
    1f76:	80 91 95 02 	lds	r24, 0x0295
    1f7a:	90 91 96 02 	lds	r25, 0x0296
    1f7e:	95 83       	std	Z+5, r25	; 0x05
    1f80:	84 83       	std	Z+4, r24	; 0x04
    1f82:	0e 94 57 17 	call	0x2eae	; 0x2eae <sprintf>
			GLCD_GoTo(12, 2);
    1f86:	ed b7       	in	r30, 0x3d	; 61
    1f88:	fe b7       	in	r31, 0x3e	; 62
    1f8a:	36 96       	adiw	r30, 0x06	; 6
    1f8c:	0f b6       	in	r0, 0x3f	; 63
    1f8e:	f8 94       	cli
    1f90:	fe bf       	out	0x3e, r31	; 62
    1f92:	0f be       	out	0x3f, r0	; 63
    1f94:	ed bf       	out	0x3d, r30	; 61
    1f96:	8c e0       	ldi	r24, 0x0C	; 12
    1f98:	62 e0       	ldi	r22, 0x02	; 2
    1f9a:	0e 94 81 05 	call	0xb02	; 0xb02 <GLCD_GoTo>
			GLCD_WriteString5x7(LCD);
    1f9e:	ce 01       	movw	r24, r28
    1fa0:	0e 94 f6 05 	call	0xbec	; 0xbec <GLCD_WriteString5x7>
	
			sprintf(LCD, "DIVIDER: %04X", divider);
    1fa4:	00 d0       	rcall	.+0      	; 0x1fa6 <Dsp_Debugging+0x128>
    1fa6:	00 d0       	rcall	.+0      	; 0x1fa8 <Dsp_Debugging+0x12a>
    1fa8:	00 d0       	rcall	.+0      	; 0x1faa <Dsp_Debugging+0x12c>
    1faa:	ed b7       	in	r30, 0x3d	; 61
    1fac:	fe b7       	in	r31, 0x3e	; 62
    1fae:	31 96       	adiw	r30, 0x01	; 1
    1fb0:	ad b7       	in	r26, 0x3d	; 61
    1fb2:	be b7       	in	r27, 0x3e	; 62
    1fb4:	12 96       	adiw	r26, 0x02	; 2
    1fb6:	dc 93       	st	X, r29
    1fb8:	ce 93       	st	-X, r28
    1fba:	11 97       	sbiw	r26, 0x01	; 1
    1fbc:	8b e5       	ldi	r24, 0x5B	; 91
    1fbe:	91 e0       	ldi	r25, 0x01	; 1
    1fc0:	93 83       	std	Z+3, r25	; 0x03
    1fc2:	82 83       	std	Z+2, r24	; 0x02
    1fc4:	80 91 6d 02 	lds	r24, 0x026D
    1fc8:	90 91 6e 02 	lds	r25, 0x026E
    1fcc:	95 83       	std	Z+5, r25	; 0x05
    1fce:	84 83       	std	Z+4, r24	; 0x04
    1fd0:	0e 94 57 17 	call	0x2eae	; 0x2eae <sprintf>
			GLCD_GoTo(12, 3);
    1fd4:	ed b7       	in	r30, 0x3d	; 61
    1fd6:	fe b7       	in	r31, 0x3e	; 62
    1fd8:	36 96       	adiw	r30, 0x06	; 6
    1fda:	0f b6       	in	r0, 0x3f	; 63
    1fdc:	f8 94       	cli
    1fde:	fe bf       	out	0x3e, r31	; 62
    1fe0:	0f be       	out	0x3f, r0	; 63
    1fe2:	ed bf       	out	0x3d, r30	; 61
    1fe4:	8c e0       	ldi	r24, 0x0C	; 12
    1fe6:	63 e0       	ldi	r22, 0x03	; 3
    1fe8:	0e 94 81 05 	call	0xb02	; 0xb02 <GLCD_GoTo>
			GLCD_WriteString5x7(LCD);
    1fec:	ce 01       	movw	r24, r28
    1fee:	0e 94 f6 05 	call	0xbec	; 0xbec <GLCD_WriteString5x7>

			sprintf(LCD, "SETTLECnt: %04X", settlecount);
    1ff2:	00 d0       	rcall	.+0      	; 0x1ff4 <Dsp_Debugging+0x176>
    1ff4:	00 d0       	rcall	.+0      	; 0x1ff6 <Dsp_Debugging+0x178>
    1ff6:	00 d0       	rcall	.+0      	; 0x1ff8 <Dsp_Debugging+0x17a>
    1ff8:	ed b7       	in	r30, 0x3d	; 61
    1ffa:	fe b7       	in	r31, 0x3e	; 62
    1ffc:	31 96       	adiw	r30, 0x01	; 1
    1ffe:	ad b7       	in	r26, 0x3d	; 61
    2000:	be b7       	in	r27, 0x3e	; 62
    2002:	12 96       	adiw	r26, 0x02	; 2
    2004:	dc 93       	st	X, r29
    2006:	ce 93       	st	-X, r28
    2008:	11 97       	sbiw	r26, 0x01	; 1
    200a:	89 e6       	ldi	r24, 0x69	; 105
    200c:	91 e0       	ldi	r25, 0x01	; 1
    200e:	93 83       	std	Z+3, r25	; 0x03
    2010:	82 83       	std	Z+2, r24	; 0x02
    2012:	80 91 78 02 	lds	r24, 0x0278
    2016:	90 91 79 02 	lds	r25, 0x0279
    201a:	95 83       	std	Z+5, r25	; 0x05
    201c:	84 83       	std	Z+4, r24	; 0x04
    201e:	0e 94 57 17 	call	0x2eae	; 0x2eae <sprintf>
			GLCD_GoTo(12, 4);
    2022:	ed b7       	in	r30, 0x3d	; 61
    2024:	fe b7       	in	r31, 0x3e	; 62
    2026:	36 96       	adiw	r30, 0x06	; 6
    2028:	0f b6       	in	r0, 0x3f	; 63
    202a:	f8 94       	cli
    202c:	fe bf       	out	0x3e, r31	; 62
    202e:	0f be       	out	0x3f, r0	; 63
    2030:	ed bf       	out	0x3d, r30	; 61
    2032:	8c e0       	ldi	r24, 0x0C	; 12
    2034:	64 e0       	ldi	r22, 0x04	; 4
    2036:	0e 94 81 05 	call	0xb02	; 0xb02 <GLCD_GoTo>
			GLCD_WriteString5x7(LCD);
    203a:	ce 01       	movw	r24, r28
    203c:	0e 94 f6 05 	call	0xbec	; 0xbec <GLCD_WriteString5x7>

			sprintf(LCD, "RCnt: %04X", rcount);
    2040:	00 d0       	rcall	.+0      	; 0x2042 <Dsp_Debugging+0x1c4>
    2042:	00 d0       	rcall	.+0      	; 0x2044 <Dsp_Debugging+0x1c6>
    2044:	00 d0       	rcall	.+0      	; 0x2046 <Dsp_Debugging+0x1c8>
    2046:	ed b7       	in	r30, 0x3d	; 61
    2048:	fe b7       	in	r31, 0x3e	; 62
    204a:	31 96       	adiw	r30, 0x01	; 1
    204c:	ad b7       	in	r26, 0x3d	; 61
    204e:	be b7       	in	r27, 0x3e	; 62
    2050:	12 96       	adiw	r26, 0x02	; 2
    2052:	dc 93       	st	X, r29
    2054:	ce 93       	st	-X, r28
    2056:	11 97       	sbiw	r26, 0x01	; 1
    2058:	89 e7       	ldi	r24, 0x79	; 121
    205a:	91 e0       	ldi	r25, 0x01	; 1
    205c:	93 83       	std	Z+3, r25	; 0x03
    205e:	82 83       	std	Z+2, r24	; 0x02
    2060:	80 91 6f 02 	lds	r24, 0x026F
    2064:	90 91 70 02 	lds	r25, 0x0270
    2068:	95 83       	std	Z+5, r25	; 0x05
    206a:	84 83       	std	Z+4, r24	; 0x04
    206c:	0e 94 57 17 	call	0x2eae	; 0x2eae <sprintf>
			GLCD_GoTo(12, 5);
    2070:	ed b7       	in	r30, 0x3d	; 61
    2072:	fe b7       	in	r31, 0x3e	; 62
    2074:	36 96       	adiw	r30, 0x06	; 6
    2076:	0f b6       	in	r0, 0x3f	; 63
    2078:	f8 94       	cli
    207a:	fe bf       	out	0x3e, r31	; 62
    207c:	0f be       	out	0x3f, r0	; 63
    207e:	ed bf       	out	0x3d, r30	; 61
    2080:	8c e0       	ldi	r24, 0x0C	; 12
    2082:	65 e0       	ldi	r22, 0x05	; 5
    2084:	0e 94 81 05 	call	0xb02	; 0xb02 <GLCD_GoTo>
			GLCD_WriteString5x7(LCD);
    2088:	ce 01       	movw	r24, r28
    208a:	0e 94 f6 05 	call	0xbec	; 0xbec <GLCD_WriteString5x7>
			break;
    208e:	4a c1       	rjmp	.+660    	; 0x2324 <Dsp_Debugging+0x4a6>
		case 1:
			sprintf(LCD, "ERRORConf: %04X", error_conf);
    2090:	00 d0       	rcall	.+0      	; 0x2092 <Dsp_Debugging+0x214>
    2092:	00 d0       	rcall	.+0      	; 0x2094 <Dsp_Debugging+0x216>
    2094:	00 d0       	rcall	.+0      	; 0x2096 <Dsp_Debugging+0x218>
    2096:	ed b7       	in	r30, 0x3d	; 61
    2098:	fe b7       	in	r31, 0x3e	; 62
    209a:	31 96       	adiw	r30, 0x01	; 1
    209c:	ca e7       	ldi	r28, 0x7A	; 122
    209e:	d2 e0       	ldi	r29, 0x02	; 2
    20a0:	ad b7       	in	r26, 0x3d	; 61
    20a2:	be b7       	in	r27, 0x3e	; 62
    20a4:	12 96       	adiw	r26, 0x02	; 2
    20a6:	dc 93       	st	X, r29
    20a8:	ce 93       	st	-X, r28
    20aa:	11 97       	sbiw	r26, 0x01	; 1
    20ac:	84 e8       	ldi	r24, 0x84	; 132
    20ae:	91 e0       	ldi	r25, 0x01	; 1
    20b0:	93 83       	std	Z+3, r25	; 0x03
    20b2:	82 83       	std	Z+2, r24	; 0x02
    20b4:	80 91 72 02 	lds	r24, 0x0272
    20b8:	90 91 73 02 	lds	r25, 0x0273
    20bc:	95 83       	std	Z+5, r25	; 0x05
    20be:	84 83       	std	Z+4, r24	; 0x04
    20c0:	0e 94 57 17 	call	0x2eae	; 0x2eae <sprintf>
			GLCD_GoTo(12, 2);
    20c4:	ed b7       	in	r30, 0x3d	; 61
    20c6:	fe b7       	in	r31, 0x3e	; 62
    20c8:	36 96       	adiw	r30, 0x06	; 6
    20ca:	0f b6       	in	r0, 0x3f	; 63
    20cc:	f8 94       	cli
    20ce:	fe bf       	out	0x3e, r31	; 62
    20d0:	0f be       	out	0x3f, r0	; 63
    20d2:	ed bf       	out	0x3d, r30	; 61
    20d4:	8c e0       	ldi	r24, 0x0C	; 12
    20d6:	62 e0       	ldi	r22, 0x02	; 2
    20d8:	0e 94 81 05 	call	0xb02	; 0xb02 <GLCD_GoTo>
			GLCD_WriteString5x7(LCD);
    20dc:	ce 01       	movw	r24, r28
    20de:	0e 94 f6 05 	call	0xbec	; 0xbec <GLCD_WriteString5x7>
	
			sprintf(LCD, "MUX: %04X", mux_conf);
    20e2:	00 d0       	rcall	.+0      	; 0x20e4 <Dsp_Debugging+0x266>
    20e4:	00 d0       	rcall	.+0      	; 0x20e6 <Dsp_Debugging+0x268>
    20e6:	00 d0       	rcall	.+0      	; 0x20e8 <Dsp_Debugging+0x26a>
    20e8:	ed b7       	in	r30, 0x3d	; 61
    20ea:	fe b7       	in	r31, 0x3e	; 62
    20ec:	31 96       	adiw	r30, 0x01	; 1
    20ee:	ad b7       	in	r26, 0x3d	; 61
    20f0:	be b7       	in	r27, 0x3e	; 62
    20f2:	12 96       	adiw	r26, 0x02	; 2
    20f4:	dc 93       	st	X, r29
    20f6:	ce 93       	st	-X, r28
    20f8:	11 97       	sbiw	r26, 0x01	; 1
    20fa:	84 e9       	ldi	r24, 0x94	; 148
    20fc:	91 e0       	ldi	r25, 0x01	; 1
    20fe:	93 83       	std	Z+3, r25	; 0x03
    2100:	82 83       	std	Z+2, r24	; 0x02
    2102:	80 91 38 02 	lds	r24, 0x0238
    2106:	90 91 39 02 	lds	r25, 0x0239
    210a:	95 83       	std	Z+5, r25	; 0x05
    210c:	84 83       	std	Z+4, r24	; 0x04
    210e:	0e 94 57 17 	call	0x2eae	; 0x2eae <sprintf>
			GLCD_GoTo(12, 3);
    2112:	ed b7       	in	r30, 0x3d	; 61
    2114:	fe b7       	in	r31, 0x3e	; 62
    2116:	36 96       	adiw	r30, 0x06	; 6
    2118:	0f b6       	in	r0, 0x3f	; 63
    211a:	f8 94       	cli
    211c:	fe bf       	out	0x3e, r31	; 62
    211e:	0f be       	out	0x3f, r0	; 63
    2120:	ed bf       	out	0x3d, r30	; 61
    2122:	8c e0       	ldi	r24, 0x0C	; 12
    2124:	63 e0       	ldi	r22, 0x03	; 3
    2126:	0e 94 81 05 	call	0xb02	; 0xb02 <GLCD_GoTo>
			GLCD_WriteString5x7(LCD);
    212a:	ce 01       	movw	r24, r28
    212c:	0e 94 f6 05 	call	0xbec	; 0xbec <GLCD_WriteString5x7>

			sprintf(LCD, "IDRIVE: %04X", i_drive);
    2130:	00 d0       	rcall	.+0      	; 0x2132 <Dsp_Debugging+0x2b4>
    2132:	00 d0       	rcall	.+0      	; 0x2134 <Dsp_Debugging+0x2b6>
    2134:	00 d0       	rcall	.+0      	; 0x2136 <Dsp_Debugging+0x2b8>
    2136:	ed b7       	in	r30, 0x3d	; 61
    2138:	fe b7       	in	r31, 0x3e	; 62
    213a:	31 96       	adiw	r30, 0x01	; 1
    213c:	ad b7       	in	r26, 0x3d	; 61
    213e:	be b7       	in	r27, 0x3e	; 62
    2140:	12 96       	adiw	r26, 0x02	; 2
    2142:	dc 93       	st	X, r29
    2144:	ce 93       	st	-X, r28
    2146:	11 97       	sbiw	r26, 0x01	; 1
    2148:	8e e9       	ldi	r24, 0x9E	; 158
    214a:	91 e0       	ldi	r25, 0x01	; 1
    214c:	93 83       	std	Z+3, r25	; 0x03
    214e:	82 83       	std	Z+2, r24	; 0x02
    2150:	80 91 3a 02 	lds	r24, 0x023A
    2154:	90 91 3b 02 	lds	r25, 0x023B
    2158:	95 83       	std	Z+5, r25	; 0x05
    215a:	84 83       	std	Z+4, r24	; 0x04
    215c:	0e 94 57 17 	call	0x2eae	; 0x2eae <sprintf>
			GLCD_GoTo(12, 4);
    2160:	ed b7       	in	r30, 0x3d	; 61
    2162:	fe b7       	in	r31, 0x3e	; 62
    2164:	36 96       	adiw	r30, 0x06	; 6
    2166:	0f b6       	in	r0, 0x3f	; 63
    2168:	f8 94       	cli
    216a:	fe bf       	out	0x3e, r31	; 62
    216c:	0f be       	out	0x3f, r0	; 63
    216e:	ed bf       	out	0x3d, r30	; 61
    2170:	8c e0       	ldi	r24, 0x0C	; 12
    2172:	64 e0       	ldi	r22, 0x04	; 4
    2174:	0e 94 81 05 	call	0xb02	; 0xb02 <GLCD_GoTo>
			GLCD_WriteString5x7(LCD);
    2178:	ce 01       	movw	r24, r28
    217a:	0e 94 f6 05 	call	0xbec	; 0xbec <GLCD_WriteString5x7>

			sprintf(LCD, "fREQ: %08lX", ldc_data);
    217e:	2d b7       	in	r18, 0x3d	; 61
    2180:	3e b7       	in	r19, 0x3e	; 62
    2182:	28 50       	subi	r18, 0x08	; 8
    2184:	30 40       	sbci	r19, 0x00	; 0
    2186:	0f b6       	in	r0, 0x3f	; 63
    2188:	f8 94       	cli
    218a:	3e bf       	out	0x3e, r19	; 62
    218c:	0f be       	out	0x3f, r0	; 63
    218e:	2d bf       	out	0x3d, r18	; 61
    2190:	ed b7       	in	r30, 0x3d	; 61
    2192:	fe b7       	in	r31, 0x3e	; 62
    2194:	31 96       	adiw	r30, 0x01	; 1
    2196:	ad b7       	in	r26, 0x3d	; 61
    2198:	be b7       	in	r27, 0x3e	; 62
    219a:	12 96       	adiw	r26, 0x02	; 2
    219c:	dc 93       	st	X, r29
    219e:	ce 93       	st	-X, r28
    21a0:	11 97       	sbiw	r26, 0x01	; 1
    21a2:	8b ea       	ldi	r24, 0xAB	; 171
    21a4:	91 e0       	ldi	r25, 0x01	; 1
    21a6:	93 83       	std	Z+3, r25	; 0x03
    21a8:	82 83       	std	Z+2, r24	; 0x02
    21aa:	80 91 8e 02 	lds	r24, 0x028E
    21ae:	90 91 8f 02 	lds	r25, 0x028F
    21b2:	a0 91 90 02 	lds	r26, 0x0290
    21b6:	b0 91 91 02 	lds	r27, 0x0291
    21ba:	84 83       	std	Z+4, r24	; 0x04
    21bc:	95 83       	std	Z+5, r25	; 0x05
    21be:	a6 83       	std	Z+6, r26	; 0x06
    21c0:	b7 83       	std	Z+7, r27	; 0x07
    21c2:	0e 94 57 17 	call	0x2eae	; 0x2eae <sprintf>
			GLCD_GoTo(12, 5);
    21c6:	ed b7       	in	r30, 0x3d	; 61
    21c8:	fe b7       	in	r31, 0x3e	; 62
    21ca:	38 96       	adiw	r30, 0x08	; 8
    21cc:	0f b6       	in	r0, 0x3f	; 63
    21ce:	f8 94       	cli
    21d0:	fe bf       	out	0x3e, r31	; 62
    21d2:	0f be       	out	0x3f, r0	; 63
    21d4:	ed bf       	out	0x3d, r30	; 61
    21d6:	8c e0       	ldi	r24, 0x0C	; 12
    21d8:	65 e0       	ldi	r22, 0x05	; 5
    21da:	0e 94 81 05 	call	0xb02	; 0xb02 <GLCD_GoTo>
			GLCD_WriteString5x7(LCD);
    21de:	ce 01       	movw	r24, r28
    21e0:	0e 94 f6 05 	call	0xbec	; 0xbec <GLCD_WriteString5x7>
			break;
    21e4:	9f c0       	rjmp	.+318    	; 0x2324 <Dsp_Debugging+0x4a6>

		case 2:
			sprintf(LCD, "STATUS: %04X", status);
    21e6:	00 d0       	rcall	.+0      	; 0x21e8 <Dsp_Debugging+0x36a>
    21e8:	00 d0       	rcall	.+0      	; 0x21ea <Dsp_Debugging+0x36c>
    21ea:	00 d0       	rcall	.+0      	; 0x21ec <Dsp_Debugging+0x36e>
    21ec:	ed b7       	in	r30, 0x3d	; 61
    21ee:	fe b7       	in	r31, 0x3e	; 62
    21f0:	31 96       	adiw	r30, 0x01	; 1
    21f2:	ca e7       	ldi	r28, 0x7A	; 122
    21f4:	d2 e0       	ldi	r29, 0x02	; 2
    21f6:	ad b7       	in	r26, 0x3d	; 61
    21f8:	be b7       	in	r27, 0x3e	; 62
    21fa:	12 96       	adiw	r26, 0x02	; 2
    21fc:	dc 93       	st	X, r29
    21fe:	ce 93       	st	-X, r28
    2200:	11 97       	sbiw	r26, 0x01	; 1
    2202:	87 eb       	ldi	r24, 0xB7	; 183
    2204:	91 e0       	ldi	r25, 0x01	; 1
    2206:	93 83       	std	Z+3, r25	; 0x03
    2208:	82 83       	std	Z+2, r24	; 0x02
    220a:	80 91 93 02 	lds	r24, 0x0293
    220e:	90 91 94 02 	lds	r25, 0x0294
    2212:	95 83       	std	Z+5, r25	; 0x05
    2214:	84 83       	std	Z+4, r24	; 0x04
    2216:	0e 94 57 17 	call	0x2eae	; 0x2eae <sprintf>
			GLCD_GoTo(12, 2);
    221a:	ed b7       	in	r30, 0x3d	; 61
    221c:	fe b7       	in	r31, 0x3e	; 62
    221e:	36 96       	adiw	r30, 0x06	; 6
    2220:	0f b6       	in	r0, 0x3f	; 63
    2222:	f8 94       	cli
    2224:	fe bf       	out	0x3e, r31	; 62
    2226:	0f be       	out	0x3f, r0	; 63
    2228:	ed bf       	out	0x3d, r30	; 61
    222a:	8c e0       	ldi	r24, 0x0C	; 12
    222c:	62 e0       	ldi	r22, 0x02	; 2
    222e:	0e 94 81 05 	call	0xb02	; 0xb02 <GLCD_GoTo>
			GLCD_WriteString5x7(LCD);
    2232:	ce 01       	movw	r24, r28
    2234:	0e 94 f6 05 	call	0xbec	; 0xbec <GLCD_WriteString5x7>
	
			sprintf(LCD, "OFFSET: %04X", offset);
    2238:	00 d0       	rcall	.+0      	; 0x223a <Dsp_Debugging+0x3bc>
    223a:	00 d0       	rcall	.+0      	; 0x223c <Dsp_Debugging+0x3be>
    223c:	00 d0       	rcall	.+0      	; 0x223e <Dsp_Debugging+0x3c0>
    223e:	ed b7       	in	r30, 0x3d	; 61
    2240:	fe b7       	in	r31, 0x3e	; 62
    2242:	31 96       	adiw	r30, 0x01	; 1
    2244:	ad b7       	in	r26, 0x3d	; 61
    2246:	be b7       	in	r27, 0x3e	; 62
    2248:	12 96       	adiw	r26, 0x02	; 2
    224a:	dc 93       	st	X, r29
    224c:	ce 93       	st	-X, r28
    224e:	11 97       	sbiw	r26, 0x01	; 1
    2250:	84 ec       	ldi	r24, 0xC4	; 196
    2252:	91 e0       	ldi	r25, 0x01	; 1
    2254:	93 83       	std	Z+3, r25	; 0x03
    2256:	82 83       	std	Z+2, r24	; 0x02
    2258:	80 91 76 02 	lds	r24, 0x0276
    225c:	90 91 77 02 	lds	r25, 0x0277
    2260:	95 83       	std	Z+5, r25	; 0x05
    2262:	84 83       	std	Z+4, r24	; 0x04
    2264:	0e 94 57 17 	call	0x2eae	; 0x2eae <sprintf>
			GLCD_GoTo(12, 3);
    2268:	ed b7       	in	r30, 0x3d	; 61
    226a:	fe b7       	in	r31, 0x3e	; 62
    226c:	36 96       	adiw	r30, 0x06	; 6
    226e:	0f b6       	in	r0, 0x3f	; 63
    2270:	f8 94       	cli
    2272:	fe bf       	out	0x3e, r31	; 62
    2274:	0f be       	out	0x3f, r0	; 63
    2276:	ed bf       	out	0x3d, r30	; 61
    2278:	8c e0       	ldi	r24, 0x0C	; 12
    227a:	63 e0       	ldi	r22, 0x03	; 3
    227c:	0e 94 81 05 	call	0xb02	; 0xb02 <GLCD_GoTo>
			GLCD_WriteString5x7(LCD);
    2280:	ce 01       	movw	r24, r28
    2282:	0e 94 f6 05 	call	0xbec	; 0xbec <GLCD_WriteString5x7>

			//sprintf(LCD, "GAIN: %04X", gain);
			//GLCD_GoTo(12, 4);
			//GLCD_WriteString5x7(LCD);
			break;
    2286:	4e c0       	rjmp	.+156    	; 0x2324 <Dsp_Debugging+0x4a6>
    2288:	0c e3       	ldi	r16, 0x3C	; 60
    228a:	12 e0       	ldi	r17, 0x02	; 2
		reloadFlag = FALSE;
	}

	LCD_DefaultScreen("Debug Mode", "REROAD", "", "", "EXIT");
	
	switch(debugPage){
    228c:	c0 e0       	ldi	r28, 0x00	; 0
			//GLCD_WriteString5x7(LCD);
			break;

		case 3:
		for(i = 0; i<LDC_LENGTH ; i++){
			sprintf(LCD, "%6lX",ldc[i]&0xFFFFFF);
    228e:	0f 2e       	mov	r0, r31
    2290:	fa e7       	ldi	r31, 0x7A	; 122
    2292:	ef 2e       	mov	r14, r31
    2294:	f2 e0       	ldi	r31, 0x02	; 2
    2296:	ff 2e       	mov	r15, r31
    2298:	f0 2d       	mov	r31, r0
    229a:	0f 2e       	mov	r0, r31
    229c:	f1 ed       	ldi	r31, 0xD1	; 209
    229e:	af 2e       	mov	r10, r31
    22a0:	f1 e0       	ldi	r31, 0x01	; 1
    22a2:	bf 2e       	mov	r11, r31
    22a4:	f0 2d       	mov	r31, r0
			GLCD_GoTo(10 + (40*(i%3)), 2 + (i/3));
    22a6:	d3 e0       	ldi	r29, 0x03	; 3
    22a8:	0f 2e       	mov	r0, r31
    22aa:	f8 e2       	ldi	r31, 0x28	; 40
    22ac:	df 2e       	mov	r13, r31
    22ae:	f0 2d       	mov	r31, r0
			//GLCD_WriteString5x7(LCD);
			break;

		case 3:
		for(i = 0; i<LDC_LENGTH ; i++){
			sprintf(LCD, "%6lX",ldc[i]&0xFFFFFF);
    22b0:	f8 01       	movw	r30, r16
    22b2:	81 91       	ld	r24, Z+
    22b4:	91 91       	ld	r25, Z+
    22b6:	a1 91       	ld	r26, Z+
    22b8:	b1 91       	ld	r27, Z+
    22ba:	8f 01       	movw	r16, r30
    22bc:	2d b7       	in	r18, 0x3d	; 61
    22be:	3e b7       	in	r19, 0x3e	; 62
    22c0:	28 50       	subi	r18, 0x08	; 8
    22c2:	30 40       	sbci	r19, 0x00	; 0
    22c4:	0f b6       	in	r0, 0x3f	; 63
    22c6:	f8 94       	cli
    22c8:	3e bf       	out	0x3e, r19	; 62
    22ca:	0f be       	out	0x3f, r0	; 63
    22cc:	2d bf       	out	0x3d, r18	; 61
    22ce:	2f 5f       	subi	r18, 0xFF	; 255
    22d0:	3f 4f       	sbci	r19, 0xFF	; 255
    22d2:	ed b7       	in	r30, 0x3d	; 61
    22d4:	fe b7       	in	r31, 0x3e	; 62
    22d6:	f2 82       	std	Z+2, r15	; 0x02
    22d8:	e1 82       	std	Z+1, r14	; 0x01
    22da:	f9 01       	movw	r30, r18
    22dc:	b3 82       	std	Z+3, r11	; 0x03
    22de:	a2 82       	std	Z+2, r10	; 0x02
    22e0:	b0 70       	andi	r27, 0x00	; 0
    22e2:	84 83       	std	Z+4, r24	; 0x04
    22e4:	95 83       	std	Z+5, r25	; 0x05
    22e6:	a6 83       	std	Z+6, r26	; 0x06
    22e8:	b7 83       	std	Z+7, r27	; 0x07
    22ea:	0e 94 57 17 	call	0x2eae	; 0x2eae <sprintf>
			GLCD_GoTo(10 + (40*(i%3)), 2 + (i/3));
    22ee:	2d b7       	in	r18, 0x3d	; 61
    22f0:	3e b7       	in	r19, 0x3e	; 62
    22f2:	28 5f       	subi	r18, 0xF8	; 248
    22f4:	3f 4f       	sbci	r19, 0xFF	; 255
    22f6:	0f b6       	in	r0, 0x3f	; 63
    22f8:	f8 94       	cli
    22fa:	3e bf       	out	0x3e, r19	; 62
    22fc:	0f be       	out	0x3f, r0	; 63
    22fe:	2d bf       	out	0x3d, r18	; 61
    2300:	8c 2f       	mov	r24, r28
    2302:	6d 2f       	mov	r22, r29
    2304:	0e 94 24 17 	call	0x2e48	; 0x2e48 <__udivmodqi4>
    2308:	68 2f       	mov	r22, r24
    230a:	9d 9d       	mul	r25, r13
    230c:	80 2d       	mov	r24, r0
    230e:	11 24       	eor	r1, r1
    2310:	6e 5f       	subi	r22, 0xFE	; 254
    2312:	86 5f       	subi	r24, 0xF6	; 246
    2314:	0e 94 81 05 	call	0xb02	; 0xb02 <GLCD_GoTo>
			GLCD_WriteString5x7(LCD);
    2318:	c7 01       	movw	r24, r14
    231a:	0e 94 f6 05 	call	0xbec	; 0xbec <GLCD_WriteString5x7>
			//GLCD_GoTo(12, 4);
			//GLCD_WriteString5x7(LCD);
			break;

		case 3:
		for(i = 0; i<LDC_LENGTH ; i++){
    231e:	cf 5f       	subi	r28, 0xFF	; 255
    2320:	cb 30       	cpi	r28, 0x0B	; 11
    2322:	31 f6       	brne	.-116    	; 0x22b0 <Dsp_Debugging+0x432>
			break;
	}
	

	
}
    2324:	df 91       	pop	r29
    2326:	cf 91       	pop	r28
    2328:	1f 91       	pop	r17
    232a:	0f 91       	pop	r16
    232c:	ff 90       	pop	r15
    232e:	ef 90       	pop	r14
    2330:	df 90       	pop	r13
    2332:	bf 90       	pop	r11
    2334:	af 90       	pop	r10
    2336:	08 95       	ret

00002338 <CHK_Button>:

//좼퀋 쌹챹 턅첉찔 쐉찌 쟥얙 쐑얠챹 쩠
void CHK_Button(){
    2338:	cf 93       	push	r28
    233a:	df 93       	push	r29
	uint8_t btn, i;
	uint16_t tmp = 0;

	btn = SW_IN;
    233c:	83 b3       	in	r24, 0x13	; 19
    233e:	82 95       	swap	r24
    2340:	8f 70       	andi	r24, 0x0F	; 15
#ifdef KEY_TEST
	sprintf(LCD, "Button Number: %02d", btn);
	GLCD_GoTo(12, 5);
	GLCD_WriteString5x7(LCD);
#endif
	switch(btn){
    2342:	8a 30       	cpi	r24, 0x0A	; 10
    2344:	09 f4       	brne	.+2      	; 0x2348 <CHK_Button+0x10>
    2346:	12 c2       	rjmp	.+1060   	; 0x276c <CHK_Button+0x434>
    2348:	8b 30       	cpi	r24, 0x0B	; 11
    234a:	50 f4       	brcc	.+20     	; 0x2360 <CHK_Button+0x28>
    234c:	88 30       	cpi	r24, 0x08	; 8
    234e:	09 f4       	brne	.+2      	; 0x2352 <CHK_Button+0x1a>
    2350:	75 c2       	rjmp	.+1258   	; 0x283c <CHK_Button+0x504>
    2352:	89 30       	cpi	r24, 0x09	; 9
    2354:	08 f0       	brcs	.+2      	; 0x2358 <CHK_Button+0x20>
    2356:	5a c2       	rjmp	.+1204   	; 0x280c <CHK_Button+0x4d4>
    2358:	87 30       	cpi	r24, 0x07	; 7
    235a:	09 f0       	breq	.+2      	; 0x235e <CHK_Button+0x26>
    235c:	74 c2       	rjmp	.+1256   	; 0x2846 <CHK_Button+0x50e>
    235e:	0a c0       	rjmp	.+20     	; 0x2374 <CHK_Button+0x3c>
    2360:	8d 30       	cpi	r24, 0x0D	; 13
    2362:	09 f4       	brne	.+2      	; 0x2366 <CHK_Button+0x2e>
    2364:	a5 c1       	rjmp	.+842    	; 0x26b0 <CHK_Button+0x378>
    2366:	8e 30       	cpi	r24, 0x0E	; 14
    2368:	09 f4       	brne	.+2      	; 0x236c <CHK_Button+0x34>
    236a:	d7 c0       	rjmp	.+430    	; 0x251a <CHK_Button+0x1e2>
    236c:	8b 30       	cpi	r24, 0x0B	; 11
    236e:	09 f0       	breq	.+2      	; 0x2372 <CHK_Button+0x3a>
    2370:	6a c2       	rjmp	.+1236   	; 0x2846 <CHK_Button+0x50e>
    2372:	21 c1       	rjmp	.+578    	; 0x25b6 <CHK_Button+0x27e>
		case SW_ENT:
			if(opMode == DP_MODE) {
    2374:	80 91 29 02 	lds	r24, 0x0229
    2378:	88 23       	and	r24, r24
    237a:	31 f4       	brne	.+12     	; 0x2388 <CHK_Button+0x50>
				opMode = OFFSET_GAIN_MODE;
    237c:	81 e0       	ldi	r24, 0x01	; 1
    237e:	80 93 29 02 	sts	0x0229, r24
				GLCD_ClearScreen();
    2382:	0e 94 99 05 	call	0xb32	; 0xb32 <GLCD_ClearScreen>
    2386:	c2 c0       	rjmp	.+388    	; 0x250c <CHK_Button+0x1d4>
			}
			else if(opMode == SET_MODE){
    2388:	82 30       	cpi	r24, 0x02	; 2
    238a:	09 f0       	breq	.+2      	; 0x238e <CHK_Button+0x56>
    238c:	5f c0       	rjmp	.+190    	; 0x244c <CHK_Button+0x114>
				eeprom_update_dword((uint32_t*)((position+1)*5), ldc_data);
    238e:	20 91 2d 02 	lds	r18, 0x022D
    2392:	30 91 2e 02 	lds	r19, 0x022E
    2396:	2f 5f       	subi	r18, 0xFF	; 255
    2398:	3f 4f       	sbci	r19, 0xFF	; 255
    239a:	c9 01       	movw	r24, r18
    239c:	88 0f       	add	r24, r24
    239e:	99 1f       	adc	r25, r25
    23a0:	88 0f       	add	r24, r24
    23a2:	99 1f       	adc	r25, r25
    23a4:	40 91 8e 02 	lds	r20, 0x028E
    23a8:	50 91 8f 02 	lds	r21, 0x028F
    23ac:	60 91 90 02 	lds	r22, 0x0290
    23b0:	70 91 91 02 	lds	r23, 0x0291
    23b4:	82 0f       	add	r24, r18
    23b6:	93 1f       	adc	r25, r19
    23b8:	0e 94 7c 19 	call	0x32f8	; 0x32f8 <__eeupd_dword_m32a>
				sprintf(LCD, "%02dmm(%08lX)saved!",position, ldc_data);
    23bc:	8d b7       	in	r24, 0x3d	; 61
    23be:	9e b7       	in	r25, 0x3e	; 62
    23c0:	0a 97       	sbiw	r24, 0x0a	; 10
    23c2:	0f b6       	in	r0, 0x3f	; 63
    23c4:	f8 94       	cli
    23c6:	9e bf       	out	0x3e, r25	; 62
    23c8:	0f be       	out	0x3f, r0	; 63
    23ca:	8d bf       	out	0x3d, r24	; 61
    23cc:	ed b7       	in	r30, 0x3d	; 61
    23ce:	fe b7       	in	r31, 0x3e	; 62
    23d0:	31 96       	adiw	r30, 0x01	; 1
    23d2:	ca e7       	ldi	r28, 0x7A	; 122
    23d4:	d2 e0       	ldi	r29, 0x02	; 2
    23d6:	ad b7       	in	r26, 0x3d	; 61
    23d8:	be b7       	in	r27, 0x3e	; 62
    23da:	12 96       	adiw	r26, 0x02	; 2
    23dc:	dc 93       	st	X, r29
    23de:	ce 93       	st	-X, r28
    23e0:	11 97       	sbiw	r26, 0x01	; 1
    23e2:	86 ed       	ldi	r24, 0xD6	; 214
    23e4:	91 e0       	ldi	r25, 0x01	; 1
    23e6:	93 83       	std	Z+3, r25	; 0x03
    23e8:	82 83       	std	Z+2, r24	; 0x02
    23ea:	80 91 2d 02 	lds	r24, 0x022D
    23ee:	90 91 2e 02 	lds	r25, 0x022E
    23f2:	95 83       	std	Z+5, r25	; 0x05
    23f4:	84 83       	std	Z+4, r24	; 0x04
    23f6:	80 91 8e 02 	lds	r24, 0x028E
    23fa:	90 91 8f 02 	lds	r25, 0x028F
    23fe:	a0 91 90 02 	lds	r26, 0x0290
    2402:	b0 91 91 02 	lds	r27, 0x0291
    2406:	86 83       	std	Z+6, r24	; 0x06
    2408:	97 83       	std	Z+7, r25	; 0x07
    240a:	a0 87       	std	Z+8, r26	; 0x08
    240c:	b1 87       	std	Z+9, r27	; 0x09
    240e:	0e 94 57 17 	call	0x2eae	; 0x2eae <sprintf>
				GLCD_GoTo(12, 4);
    2412:	8d b7       	in	r24, 0x3d	; 61
    2414:	9e b7       	in	r25, 0x3e	; 62
    2416:	0a 96       	adiw	r24, 0x0a	; 10
    2418:	0f b6       	in	r0, 0x3f	; 63
    241a:	f8 94       	cli
    241c:	9e bf       	out	0x3e, r25	; 62
    241e:	0f be       	out	0x3f, r0	; 63
    2420:	8d bf       	out	0x3d, r24	; 61
    2422:	8c e0       	ldi	r24, 0x0C	; 12
    2424:	64 e0       	ldi	r22, 0x04	; 4
    2426:	0e 94 81 05 	call	0xb02	; 0xb02 <GLCD_GoTo>
				GLCD_WriteString5x7(LCD);
    242a:	ce 01       	movw	r24, r28
    242c:	0e 94 f6 05 	call	0xbec	; 0xbec <GLCD_WriteString5x7>
				if(position < LDC_LENGTH -1 ) position++;
    2430:	80 91 2d 02 	lds	r24, 0x022D
    2434:	90 91 2e 02 	lds	r25, 0x022E
    2438:	8a 30       	cpi	r24, 0x0A	; 10
    243a:	91 05       	cpc	r25, r1
    243c:	08 f0       	brcs	.+2      	; 0x2440 <CHK_Button+0x108>
    243e:	66 c0       	rjmp	.+204    	; 0x250c <CHK_Button+0x1d4>
    2440:	01 96       	adiw	r24, 0x01	; 1
    2442:	90 93 2e 02 	sts	0x022E, r25
    2446:	80 93 2d 02 	sts	0x022D, r24
    244a:	60 c0       	rjmp	.+192    	; 0x250c <CHK_Button+0x1d4>
			}
			else if(opMode == DEBUG_MODE){
    244c:	83 30       	cpi	r24, 0x03	; 3
    244e:	31 f4       	brne	.+12     	; 0x245c <CHK_Button+0x124>
				reloadFlag = TRUE;
    2450:	81 e0       	ldi	r24, 0x01	; 1
    2452:	80 93 33 02 	sts	0x0233, r24
				GLCD_ClearScreen();
    2456:	0e 94 99 05 	call	0xb32	; 0xb32 <GLCD_ClearScreen>
    245a:	58 c0       	rjmp	.+176    	; 0x250c <CHK_Button+0x1d4>
			}
			else if(opMode == GAIN_MODE){
    245c:	85 30       	cpi	r24, 0x05	; 5
    245e:	09 f4       	brne	.+2      	; 0x2462 <CHK_Button+0x12a>
    2460:	55 c0       	rjmp	.+170    	; 0x250c <CHK_Button+0x1d4>
				//sprintf(LCD, "GAIN %04X SAVE!",gain);
				//GLCD_GoTo(12, 5);
				//GLCD_WriteString5x7(LCD);

			}
			else if (opMode == OFFSET_MODE){
    2462:	84 30       	cpi	r24, 0x04	; 4
    2464:	09 f0       	breq	.+2      	; 0x2468 <CHK_Button+0x130>
    2466:	52 c0       	rjmp	.+164    	; 0x250c <CHK_Button+0x1d4>
				for(i=0; i<4 ; i++){
					tmp |= offset_arr[i]<<(12-(4*i));
    2468:	70 91 22 02 	lds	r23, 0x0222
    246c:	60 e0       	ldi	r22, 0x00	; 0
    246e:	e0 e2       	ldi	r30, 0x20	; 32
    2470:	f2 e0       	ldi	r31, 0x02	; 2
    2472:	20 81       	ld	r18, Z
    2474:	92 2f       	mov	r25, r18
    2476:	92 95       	swap	r25
    2478:	90 7f       	andi	r25, 0xF0	; 240
    247a:	80 e0       	ldi	r24, 0x00	; 0
    247c:	86 2b       	or	r24, r22
    247e:	97 2b       	or	r25, r23
    2480:	64 81       	ldd	r22, Z+4	; 0x04
    2482:	75 81       	ldd	r23, Z+5	; 0x05
    2484:	62 95       	swap	r22
    2486:	72 95       	swap	r23
    2488:	70 7f       	andi	r23, 0xF0	; 240
    248a:	76 27       	eor	r23, r22
    248c:	60 7f       	andi	r22, 0xF0	; 240
    248e:	76 27       	eor	r23, r22
    2490:	68 2b       	or	r22, r24
    2492:	79 2b       	or	r23, r25
    2494:	26 81       	ldd	r18, Z+6	; 0x06
    2496:	37 81       	ldd	r19, Z+7	; 0x07
    2498:	62 2b       	or	r22, r18
    249a:	73 2b       	or	r23, r19
				}
				Offset_Setting(CH0,tmp);
    249c:	80 e0       	ldi	r24, 0x00	; 0
    249e:	0e 94 23 08 	call	0x1046	; 0x1046 <Offset_Setting>
				offset = Get_Offset(CH0);
    24a2:	80 e0       	ldi	r24, 0x00	; 0
    24a4:	0e 94 5d 07 	call	0xeba	; 0xeba <Get_Offset>
    24a8:	bc 01       	movw	r22, r24
    24aa:	90 93 77 02 	sts	0x0277, r25
    24ae:	80 93 76 02 	sts	0x0276, r24
				eeprom_update_word((uint16_t*)((LDC_LENGTH+3)*5), offset);
    24b2:	86 e4       	ldi	r24, 0x46	; 70
    24b4:	90 e0       	ldi	r25, 0x00	; 0
    24b6:	0e 94 88 19 	call	0x3310	; 0x3310 <__eeupd_word_m32a>
				sprintf(LCD, "OFFSET %04X SAVE!",offset);
    24ba:	00 d0       	rcall	.+0      	; 0x24bc <CHK_Button+0x184>
    24bc:	00 d0       	rcall	.+0      	; 0x24be <CHK_Button+0x186>
    24be:	00 d0       	rcall	.+0      	; 0x24c0 <CHK_Button+0x188>
    24c0:	ed b7       	in	r30, 0x3d	; 61
    24c2:	fe b7       	in	r31, 0x3e	; 62
    24c4:	31 96       	adiw	r30, 0x01	; 1
    24c6:	ca e7       	ldi	r28, 0x7A	; 122
    24c8:	d2 e0       	ldi	r29, 0x02	; 2
    24ca:	ad b7       	in	r26, 0x3d	; 61
    24cc:	be b7       	in	r27, 0x3e	; 62
    24ce:	12 96       	adiw	r26, 0x02	; 2
    24d0:	dc 93       	st	X, r29
    24d2:	ce 93       	st	-X, r28
    24d4:	11 97       	sbiw	r26, 0x01	; 1
    24d6:	8a ee       	ldi	r24, 0xEA	; 234
    24d8:	91 e0       	ldi	r25, 0x01	; 1
    24da:	93 83       	std	Z+3, r25	; 0x03
    24dc:	82 83       	std	Z+2, r24	; 0x02
    24de:	80 91 76 02 	lds	r24, 0x0276
    24e2:	90 91 77 02 	lds	r25, 0x0277
    24e6:	95 83       	std	Z+5, r25	; 0x05
    24e8:	84 83       	std	Z+4, r24	; 0x04
    24ea:	0e 94 57 17 	call	0x2eae	; 0x2eae <sprintf>
				GLCD_GoTo(12, 5);
    24ee:	8d b7       	in	r24, 0x3d	; 61
    24f0:	9e b7       	in	r25, 0x3e	; 62
    24f2:	06 96       	adiw	r24, 0x06	; 6
    24f4:	0f b6       	in	r0, 0x3f	; 63
    24f6:	f8 94       	cli
    24f8:	9e bf       	out	0x3e, r25	; 62
    24fa:	0f be       	out	0x3f, r0	; 63
    24fc:	8d bf       	out	0x3d, r24	; 61
    24fe:	8c e0       	ldi	r24, 0x0C	; 12
    2500:	65 e0       	ldi	r22, 0x05	; 5
    2502:	0e 94 81 05 	call	0xb02	; 0xb02 <GLCD_GoTo>
				GLCD_WriteString5x7(LCD);
    2506:	ce 01       	movw	r24, r28
    2508:	0e 94 f6 05 	call	0xbec	; 0xbec <GLCD_WriteString5x7>
    250c:	a3 ed       	ldi	r26, 0xD3	; 211
    250e:	b0 e3       	ldi	r27, 0x30	; 48
    2510:	11 97       	sbiw	r26, 0x01	; 1
    2512:	f1 f7       	brne	.-4      	; 0x2510 <CHK_Button+0x1d8>
    2514:	00 c0       	rjmp	.+0      	; 0x2516 <CHK_Button+0x1de>
    2516:	00 00       	nop
    2518:	96 c1       	rjmp	.+812    	; 0x2846 <CHK_Button+0x50e>
			}
			_delay_ms(50);
			break;
			
		case SW_NEXT:
			if(opMode == DP_MODE) {
    251a:	80 91 29 02 	lds	r24, 0x0229
    251e:	88 23       	and	r24, r24
    2520:	61 f4       	brne	.+24     	; 0x253a <CHK_Button+0x202>
				if (++Display_Unit > 3) Display_Unit = 0;
    2522:	80 91 28 02 	lds	r24, 0x0228
    2526:	8f 5f       	subi	r24, 0xFF	; 255
    2528:	80 93 28 02 	sts	0x0228, r24
    252c:	84 30       	cpi	r24, 0x04	; 4
    252e:	10 f0       	brcs	.+4      	; 0x2534 <CHK_Button+0x1fc>
    2530:	10 92 28 02 	sts	0x0228, r1
				GLCD_ClearScreen();
    2534:	0e 94 99 05 	call	0xb32	; 0xb32 <GLCD_ClearScreen>
    2538:	37 c0       	rjmp	.+110    	; 0x25a8 <CHK_Button+0x270>
			}
			else if(opMode == SET_MODE){
    253a:	82 30       	cpi	r24, 0x02	; 2
    253c:	39 f4       	brne	.+14     	; 0x254c <CHK_Button+0x214>
				opMode = DP_MODE;
    253e:	10 92 29 02 	sts	0x0229, r1
				Read_Eeprom();
    2542:	0e 94 12 09 	call	0x1224	; 0x1224 <Read_Eeprom>
				GLCD_ClearScreen();
    2546:	0e 94 99 05 	call	0xb32	; 0xb32 <GLCD_ClearScreen>
    254a:	2e c0       	rjmp	.+92     	; 0x25a8 <CHK_Button+0x270>
			}
			else if(opMode == OFFSET_GAIN_MODE){
    254c:	81 30       	cpi	r24, 0x01	; 1
    254e:	91 f4       	brne	.+36     	; 0x2574 <CHK_Button+0x23c>
				opMode = SET_MODE;
    2550:	82 e0       	ldi	r24, 0x02	; 2
    2552:	80 93 29 02 	sts	0x0229, r24
				position = 0;
    2556:	10 92 2e 02 	sts	0x022E, r1
    255a:	10 92 2d 02 	sts	0x022D, r1
				GLCD_ClearScreen();
    255e:	0e 94 99 05 	call	0xb32	; 0xb32 <GLCD_ClearScreen>
				GLCD_GoTo(40, 5);
    2562:	88 e2       	ldi	r24, 0x28	; 40
    2564:	65 e0       	ldi	r22, 0x05	; 5
    2566:	0e 94 81 05 	call	0xb02	; 0xb02 <GLCD_GoTo>
				GLCD_WriteString5x7("None Act!!");
    256a:	8c ef       	ldi	r24, 0xFC	; 252
    256c:	91 e0       	ldi	r25, 0x01	; 1
    256e:	0e 94 f6 05 	call	0xbec	; 0xbec <GLCD_WriteString5x7>
    2572:	1a c0       	rjmp	.+52     	; 0x25a8 <CHK_Button+0x270>
			}
			else if(opMode == DEBUG_MODE){
    2574:	83 30       	cpi	r24, 0x03	; 3
    2576:	49 f4       	brne	.+18     	; 0x258a <CHK_Button+0x252>
				opMode = DP_MODE;
    2578:	10 92 29 02 	sts	0x0229, r1
				debugPage = 0;
    257c:	10 92 75 02 	sts	0x0275, r1
    2580:	10 92 74 02 	sts	0x0274, r1
				GLCD_ClearScreen();
    2584:	0e 94 99 05 	call	0xb32	; 0xb32 <GLCD_ClearScreen>
    2588:	0f c0       	rjmp	.+30     	; 0x25a8 <CHK_Button+0x270>
			}
			else if(opMode == GAIN_MODE){
    258a:	85 30       	cpi	r24, 0x05	; 5
    258c:	31 f4       	brne	.+12     	; 0x259a <CHK_Button+0x262>
				opMode = OFFSET_GAIN_MODE;
    258e:	81 e0       	ldi	r24, 0x01	; 1
    2590:	80 93 29 02 	sts	0x0229, r24
				GLCD_ClearScreen();
    2594:	0e 94 99 05 	call	0xb32	; 0xb32 <GLCD_ClearScreen>
    2598:	07 c0       	rjmp	.+14     	; 0x25a8 <CHK_Button+0x270>
			}
			else if(opMode == OFFSET_MODE){
    259a:	84 30       	cpi	r24, 0x04	; 4
    259c:	29 f4       	brne	.+10     	; 0x25a8 <CHK_Button+0x270>
				opMode = OFFSET_GAIN_MODE;
    259e:	81 e0       	ldi	r24, 0x01	; 1
    25a0:	80 93 29 02 	sts	0x0229, r24
				GLCD_ClearScreen();
    25a4:	0e 94 99 05 	call	0xb32	; 0xb32 <GLCD_ClearScreen>
    25a8:	83 ed       	ldi	r24, 0xD3	; 211
    25aa:	90 e3       	ldi	r25, 0x30	; 48
    25ac:	01 97       	sbiw	r24, 0x01	; 1
    25ae:	f1 f7       	brne	.-4      	; 0x25ac <CHK_Button+0x274>
    25b0:	00 c0       	rjmp	.+0      	; 0x25b2 <CHK_Button+0x27a>
    25b2:	00 00       	nop
    25b4:	48 c1       	rjmp	.+656    	; 0x2846 <CHK_Button+0x50e>
			}
			_delay_ms(50);
			break;
			
		case SW_UP:
			if(opMode == SET_MODE){
    25b6:	80 91 29 02 	lds	r24, 0x0229
    25ba:	82 30       	cpi	r24, 0x02	; 2
    25bc:	69 f4       	brne	.+26     	; 0x25d8 <CHK_Button+0x2a0>
				if(position > 0) position--;
    25be:	80 91 2d 02 	lds	r24, 0x022D
    25c2:	90 91 2e 02 	lds	r25, 0x022E
    25c6:	00 97       	sbiw	r24, 0x00	; 0
    25c8:	09 f4       	brne	.+2      	; 0x25cc <CHK_Button+0x294>
    25ca:	6b c0       	rjmp	.+214    	; 0x26a2 <CHK_Button+0x36a>
    25cc:	01 97       	sbiw	r24, 0x01	; 1
    25ce:	90 93 2e 02 	sts	0x022E, r25
    25d2:	80 93 2d 02 	sts	0x022D, r24
    25d6:	65 c0       	rjmp	.+202    	; 0x26a2 <CHK_Button+0x36a>
			}
			else if(opMode == DP_MODE){
    25d8:	88 23       	and	r24, r24
    25da:	b1 f4       	brne	.+44     	; 0x2608 <CHK_Button+0x2d0>
				if (++lcd_contract >= 7) lcd_contract = 7;
    25dc:	80 91 71 02 	lds	r24, 0x0271
    25e0:	8f 5f       	subi	r24, 0xFF	; 255
    25e2:	80 93 71 02 	sts	0x0271, r24
    25e6:	87 30       	cpi	r24, 0x07	; 7
    25e8:	18 f0       	brcs	.+6      	; 0x25f0 <CHK_Button+0x2b8>
    25ea:	87 e0       	ldi	r24, 0x07	; 7
    25ec:	80 93 71 02 	sts	0x0271, r24
				GLCD_WriteCommand(SPLC501C_VOLTAGE_RATIO | lcd_contract);
    25f0:	80 91 71 02 	lds	r24, 0x0271
    25f4:	80 62       	ori	r24, 0x20	; 32
    25f6:	0e 94 37 05 	call	0xa6e	; 0xa6e <GLCD_WriteCommand>
				eeprom_update_byte((uint8_t*)((LDC_LENGTH+1)*5), lcd_contract);
    25fa:	8c e3       	ldi	r24, 0x3C	; 60
    25fc:	90 e0       	ldi	r25, 0x00	; 0
    25fe:	60 91 71 02 	lds	r22, 0x0271
    2602:	0e 94 6b 19 	call	0x32d6	; 0x32d6 <__eeupd_byte_m32a>
    2606:	4d c0       	rjmp	.+154    	; 0x26a2 <CHK_Button+0x36a>
			}
			else if(opMode == DEBUG_MODE){
    2608:	83 30       	cpi	r24, 0x03	; 3
    260a:	81 f4       	brne	.+32     	; 0x262c <CHK_Button+0x2f4>
				if(debugPage < 3) {
    260c:	80 91 74 02 	lds	r24, 0x0274
    2610:	90 91 75 02 	lds	r25, 0x0275
    2614:	83 30       	cpi	r24, 0x03	; 3
    2616:	91 05       	cpc	r25, r1
    2618:	08 f0       	brcs	.+2      	; 0x261c <CHK_Button+0x2e4>
    261a:	43 c0       	rjmp	.+134    	; 0x26a2 <CHK_Button+0x36a>
					debugPage++;
    261c:	01 96       	adiw	r24, 0x01	; 1
    261e:	90 93 75 02 	sts	0x0275, r25
    2622:	80 93 74 02 	sts	0x0274, r24
					GLCD_ClearScreen();
    2626:	0e 94 99 05 	call	0xb32	; 0xb32 <GLCD_ClearScreen>
    262a:	3b c0       	rjmp	.+118    	; 0x26a2 <CHK_Button+0x36a>
				}
			}
			else if(opMode == OFFSET_GAIN_MODE){
    262c:	81 30       	cpi	r24, 0x01	; 1
    262e:	51 f4       	brne	.+20     	; 0x2644 <CHK_Button+0x30c>
				opMode = OFFSET_MODE;
    2630:	84 e0       	ldi	r24, 0x04	; 4
    2632:	80 93 29 02 	sts	0x0229, r24
				position = 0;
    2636:	10 92 2e 02 	sts	0x022E, r1
    263a:	10 92 2d 02 	sts	0x022D, r1
				GLCD_ClearScreen();
    263e:	0e 94 99 05 	call	0xb32	; 0xb32 <GLCD_ClearScreen>
    2642:	2f c0       	rjmp	.+94     	; 0x26a2 <CHK_Button+0x36a>
			}
			else if(opMode == GAIN_MODE){
    2644:	85 30       	cpi	r24, 0x05	; 5
    2646:	61 f4       	brne	.+24     	; 0x2660 <CHK_Button+0x328>
				if(position > 0 ) position--;
    2648:	80 91 2d 02 	lds	r24, 0x022D
    264c:	90 91 2e 02 	lds	r25, 0x022E
    2650:	00 97       	sbiw	r24, 0x00	; 0
    2652:	39 f1       	breq	.+78     	; 0x26a2 <CHK_Button+0x36a>
    2654:	01 97       	sbiw	r24, 0x01	; 1
    2656:	90 93 2e 02 	sts	0x022E, r25
    265a:	80 93 2d 02 	sts	0x022D, r24
    265e:	21 c0       	rjmp	.+66     	; 0x26a2 <CHK_Button+0x36a>
			}
			else if(opMode == OFFSET_MODE){
    2660:	84 30       	cpi	r24, 0x04	; 4
    2662:	f9 f4       	brne	.+62     	; 0x26a2 <CHK_Button+0x36a>
				if(offset_arr[position] == 0x000F) 
    2664:	80 91 2d 02 	lds	r24, 0x022D
    2668:	90 91 2e 02 	lds	r25, 0x022E
    266c:	fc 01       	movw	r30, r24
    266e:	ee 0f       	add	r30, r30
    2670:	ff 1f       	adc	r31, r31
    2672:	e0 5e       	subi	r30, 0xE0	; 224
    2674:	fd 4f       	sbci	r31, 0xFD	; 253
    2676:	20 81       	ld	r18, Z
    2678:	31 81       	ldd	r19, Z+1	; 0x01
    267a:	2f 30       	cpi	r18, 0x0F	; 15
    267c:	31 05       	cpc	r19, r1
    267e:	41 f4       	brne	.+16     	; 0x2690 <CHK_Button+0x358>
					offset_arr[position] = 0x0000;
    2680:	fc 01       	movw	r30, r24
    2682:	ee 0f       	add	r30, r30
    2684:	ff 1f       	adc	r31, r31
    2686:	e0 5e       	subi	r30, 0xE0	; 224
    2688:	fd 4f       	sbci	r31, 0xFD	; 253
    268a:	11 82       	std	Z+1, r1	; 0x01
    268c:	10 82       	st	Z, r1
    268e:	09 c0       	rjmp	.+18     	; 0x26a2 <CHK_Button+0x36a>
				else
					offset_arr[position]++;
    2690:	fc 01       	movw	r30, r24
    2692:	ee 0f       	add	r30, r30
    2694:	ff 1f       	adc	r31, r31
    2696:	e0 5e       	subi	r30, 0xE0	; 224
    2698:	fd 4f       	sbci	r31, 0xFD	; 253
    269a:	2f 5f       	subi	r18, 0xFF	; 255
    269c:	3f 4f       	sbci	r19, 0xFF	; 255
    269e:	31 83       	std	Z+1, r19	; 0x01
    26a0:	20 83       	st	Z, r18
    26a2:	a3 ed       	ldi	r26, 0xD3	; 211
    26a4:	b0 e3       	ldi	r27, 0x30	; 48
    26a6:	11 97       	sbiw	r26, 0x01	; 1
    26a8:	f1 f7       	brne	.-4      	; 0x26a6 <CHK_Button+0x36e>
    26aa:	00 c0       	rjmp	.+0      	; 0x26ac <CHK_Button+0x374>
    26ac:	00 00       	nop
    26ae:	cb c0       	rjmp	.+406    	; 0x2846 <CHK_Button+0x50e>
			}
			_delay_ms(50);
			break;
			
		case SW_DOWN:
			if(opMode == SET_MODE){
    26b0:	80 91 29 02 	lds	r24, 0x0229
    26b4:	82 30       	cpi	r24, 0x02	; 2
    26b6:	71 f4       	brne	.+28     	; 0x26d4 <CHK_Button+0x39c>
				if(position < 10) position ++;
    26b8:	80 91 2d 02 	lds	r24, 0x022D
    26bc:	90 91 2e 02 	lds	r25, 0x022E
    26c0:	8a 30       	cpi	r24, 0x0A	; 10
    26c2:	91 05       	cpc	r25, r1
    26c4:	08 f0       	brcs	.+2      	; 0x26c8 <CHK_Button+0x390>
    26c6:	4b c0       	rjmp	.+150    	; 0x275e <CHK_Button+0x426>
    26c8:	01 96       	adiw	r24, 0x01	; 1
    26ca:	90 93 2e 02 	sts	0x022E, r25
    26ce:	80 93 2d 02 	sts	0x022D, r24
    26d2:	45 c0       	rjmp	.+138    	; 0x275e <CHK_Button+0x426>
			}
			else if(opMode == DP_MODE){
    26d4:	88 23       	and	r24, r24
    26d6:	79 f4       	brne	.+30     	; 0x26f6 <CHK_Button+0x3be>
				if (--lcd_contract <= 0) lcd_contract = 0;
    26d8:	80 91 71 02 	lds	r24, 0x0271
    26dc:	81 50       	subi	r24, 0x01	; 1
    26de:	80 93 71 02 	sts	0x0271, r24
				GLCD_WriteCommand(SPLC501C_VOLTAGE_RATIO | lcd_contract);
    26e2:	80 62       	ori	r24, 0x20	; 32
    26e4:	0e 94 37 05 	call	0xa6e	; 0xa6e <GLCD_WriteCommand>
				eeprom_update_byte((uint8_t*)((LDC_LENGTH+1)*5), lcd_contract);
    26e8:	8c e3       	ldi	r24, 0x3C	; 60
    26ea:	90 e0       	ldi	r25, 0x00	; 0
    26ec:	60 91 71 02 	lds	r22, 0x0271
    26f0:	0e 94 6b 19 	call	0x32d6	; 0x32d6 <__eeupd_byte_m32a>
    26f4:	34 c0       	rjmp	.+104    	; 0x275e <CHK_Button+0x426>
			}
			else if(opMode == DEBUG_MODE){
    26f6:	83 30       	cpi	r24, 0x03	; 3
    26f8:	71 f4       	brne	.+28     	; 0x2716 <CHK_Button+0x3de>
				if(debugPage > 0) {
    26fa:	80 91 74 02 	lds	r24, 0x0274
    26fe:	90 91 75 02 	lds	r25, 0x0275
    2702:	00 97       	sbiw	r24, 0x00	; 0
    2704:	61 f1       	breq	.+88     	; 0x275e <CHK_Button+0x426>
					debugPage--;
    2706:	01 97       	sbiw	r24, 0x01	; 1
    2708:	90 93 75 02 	sts	0x0275, r25
    270c:	80 93 74 02 	sts	0x0274, r24
					GLCD_ClearScreen();
    2710:	0e 94 99 05 	call	0xb32	; 0xb32 <GLCD_ClearScreen>
    2714:	24 c0       	rjmp	.+72     	; 0x275e <CHK_Button+0x426>
				}
			}
			else if(opMode == OFFSET_GAIN_MODE){
    2716:	81 30       	cpi	r24, 0x01	; 1
    2718:	11 f1       	breq	.+68     	; 0x275e <CHK_Button+0x426>
				//opMode = GAIN_MODE;
				//position = 0;
				//GLCD_ClearScreen();
			}
			else if(opMode == GAIN_MODE){
    271a:	85 30       	cpi	r24, 0x05	; 5
    271c:	69 f4       	brne	.+26     	; 0x2738 <CHK_Button+0x400>
				if(position < 3 ) position++;
    271e:	80 91 2d 02 	lds	r24, 0x022D
    2722:	90 91 2e 02 	lds	r25, 0x022E
    2726:	83 30       	cpi	r24, 0x03	; 3
    2728:	91 05       	cpc	r25, r1
    272a:	c8 f4       	brcc	.+50     	; 0x275e <CHK_Button+0x426>
    272c:	01 96       	adiw	r24, 0x01	; 1
    272e:	90 93 2e 02 	sts	0x022E, r25
    2732:	80 93 2d 02 	sts	0x022D, r24
    2736:	13 c0       	rjmp	.+38     	; 0x275e <CHK_Button+0x426>
			}
			else if(opMode == OFFSET_MODE){
    2738:	84 30       	cpi	r24, 0x04	; 4
    273a:	89 f4       	brne	.+34     	; 0x275e <CHK_Button+0x426>
				if(position == 3) position = 0;
    273c:	80 91 2d 02 	lds	r24, 0x022D
    2740:	90 91 2e 02 	lds	r25, 0x022E
    2744:	83 30       	cpi	r24, 0x03	; 3
    2746:	91 05       	cpc	r25, r1
    2748:	29 f4       	brne	.+10     	; 0x2754 <CHK_Button+0x41c>
    274a:	10 92 2e 02 	sts	0x022E, r1
    274e:	10 92 2d 02 	sts	0x022D, r1
    2752:	05 c0       	rjmp	.+10     	; 0x275e <CHK_Button+0x426>
				else position++;
    2754:	01 96       	adiw	r24, 0x01	; 1
    2756:	90 93 2e 02 	sts	0x022E, r25
    275a:	80 93 2d 02 	sts	0x022D, r24
    275e:	83 ed       	ldi	r24, 0xD3	; 211
    2760:	90 e3       	ldi	r25, 0x30	; 48
    2762:	01 97       	sbiw	r24, 0x01	; 1
    2764:	f1 f7       	brne	.-4      	; 0x2762 <CHK_Button+0x42a>
    2766:	00 c0       	rjmp	.+0      	; 0x2768 <CHK_Button+0x430>
    2768:	00 00       	nop
    276a:	6d c0       	rjmp	.+218    	; 0x2846 <CHK_Button+0x50e>
			}
			_delay_ms(50);
			break;

		case SW_UP_NEXT:
			if(opMode == OFFSET_GAIN_MODE){
    276c:	80 91 29 02 	lds	r24, 0x0229
    2770:	81 30       	cpi	r24, 0x01	; 1
    2772:	09 f0       	breq	.+2      	; 0x2776 <CHK_Button+0x43e>
    2774:	68 c0       	rjmp	.+208    	; 0x2846 <CHK_Button+0x50e>
				offset = 0x0000;
    2776:	10 92 77 02 	sts	0x0277, r1
    277a:	10 92 76 02 	sts	0x0276, r1
				offset_arr[0] = 0x0000;
    277e:	10 92 21 02 	sts	0x0221, r1
    2782:	10 92 20 02 	sts	0x0220, r1
				offset_arr[1] = 0x0000;
    2786:	10 92 23 02 	sts	0x0223, r1
    278a:	10 92 22 02 	sts	0x0222, r1
				offset_arr[2] = 0x0000;
    278e:	10 92 25 02 	sts	0x0225, r1
    2792:	10 92 24 02 	sts	0x0224, r1
				offset_arr[3] = 0x0000;
    2796:	10 92 27 02 	sts	0x0227, r1
    279a:	10 92 26 02 	sts	0x0226, r1
				Offset_Setting(CH0,offset);
    279e:	80 e0       	ldi	r24, 0x00	; 0
    27a0:	60 e0       	ldi	r22, 0x00	; 0
    27a2:	70 e0       	ldi	r23, 0x00	; 0
    27a4:	0e 94 23 08 	call	0x1046	; 0x1046 <Offset_Setting>
				eeprom_update_word((uint16_t*)((LDC_LENGTH+2)*5), offset);
    27a8:	60 91 76 02 	lds	r22, 0x0276
    27ac:	70 91 77 02 	lds	r23, 0x0277
    27b0:	81 e4       	ldi	r24, 0x41	; 65
    27b2:	90 e0       	ldi	r25, 0x00	; 0
    27b4:	0e 94 88 19 	call	0x3310	; 0x3310 <__eeupd_word_m32a>
				sprintf(LCD, "Offset(%04X) INIT!", offset);
    27b8:	00 d0       	rcall	.+0      	; 0x27ba <CHK_Button+0x482>
    27ba:	00 d0       	rcall	.+0      	; 0x27bc <CHK_Button+0x484>
    27bc:	00 d0       	rcall	.+0      	; 0x27be <CHK_Button+0x486>
    27be:	ed b7       	in	r30, 0x3d	; 61
    27c0:	fe b7       	in	r31, 0x3e	; 62
    27c2:	31 96       	adiw	r30, 0x01	; 1
    27c4:	ca e7       	ldi	r28, 0x7A	; 122
    27c6:	d2 e0       	ldi	r29, 0x02	; 2
    27c8:	ad b7       	in	r26, 0x3d	; 61
    27ca:	be b7       	in	r27, 0x3e	; 62
    27cc:	12 96       	adiw	r26, 0x02	; 2
    27ce:	dc 93       	st	X, r29
    27d0:	ce 93       	st	-X, r28
    27d2:	11 97       	sbiw	r26, 0x01	; 1
    27d4:	87 e0       	ldi	r24, 0x07	; 7
    27d6:	92 e0       	ldi	r25, 0x02	; 2
    27d8:	93 83       	std	Z+3, r25	; 0x03
    27da:	82 83       	std	Z+2, r24	; 0x02
    27dc:	80 91 76 02 	lds	r24, 0x0276
    27e0:	90 91 77 02 	lds	r25, 0x0277
    27e4:	95 83       	std	Z+5, r25	; 0x05
    27e6:	84 83       	std	Z+4, r24	; 0x04
    27e8:	0e 94 57 17 	call	0x2eae	; 0x2eae <sprintf>
				GLCD_GoTo(12, 5);
    27ec:	8d b7       	in	r24, 0x3d	; 61
    27ee:	9e b7       	in	r25, 0x3e	; 62
    27f0:	06 96       	adiw	r24, 0x06	; 6
    27f2:	0f b6       	in	r0, 0x3f	; 63
    27f4:	f8 94       	cli
    27f6:	9e bf       	out	0x3e, r25	; 62
    27f8:	0f be       	out	0x3f, r0	; 63
    27fa:	8d bf       	out	0x3d, r24	; 61
    27fc:	8c e0       	ldi	r24, 0x0C	; 12
    27fe:	65 e0       	ldi	r22, 0x05	; 5
    2800:	0e 94 81 05 	call	0xb02	; 0xb02 <GLCD_GoTo>
				GLCD_WriteString5x7(LCD);
    2804:	ce 01       	movw	r24, r28
    2806:	0e 94 f6 05 	call	0xbec	; 0xbec <GLCD_WriteString5x7>
    280a:	1d c0       	rjmp	.+58     	; 0x2846 <CHK_Button+0x50e>
			}
			break;
		case SW_UPDN:
			CLEARBIT(PORTD,PD4);
    280c:	94 98       	cbi	0x12, 4	; 18
    280e:	a3 ec       	ldi	r26, 0xC3	; 195
    2810:	b9 e0       	ldi	r27, 0x09	; 9
    2812:	11 97       	sbiw	r26, 0x01	; 1
    2814:	f1 f7       	brne	.-4      	; 0x2812 <CHK_Button+0x4da>
    2816:	00 c0       	rjmp	.+0      	; 0x2818 <CHK_Button+0x4e0>
    2818:	00 00       	nop
			_delay_ms(10);
			SETBIT(PORTD,PD4);
    281a:	94 9a       	sbi	0x12, 4	; 18
    281c:	83 ec       	ldi	r24, 0xC3	; 195
    281e:	99 e0       	ldi	r25, 0x09	; 9
    2820:	01 97       	sbiw	r24, 0x01	; 1
    2822:	f1 f7       	brne	.-4      	; 0x2820 <CHK_Button+0x4e8>
    2824:	00 c0       	rjmp	.+0      	; 0x2826 <CHK_Button+0x4ee>
    2826:	00 00       	nop
			_delay_ms(10);
			GLCD_Initialize();
    2828:	0e 94 4b 05 	call	0xa96	; 0xa96 <GLCD_Initialize>
			GLCD_ClearScreen();
    282c:	0e 94 99 05 	call	0xb32	; 0xb32 <GLCD_ClearScreen>
			GLCD_WriteCommand(SPLC501C_VOLTAGE_RATIO | lcd_contract);
    2830:	80 91 71 02 	lds	r24, 0x0271
    2834:	80 62       	ori	r24, 0x20	; 32
    2836:	0e 94 37 05 	call	0xa6e	; 0xa6e <GLCD_WriteCommand>
			break;
    283a:	05 c0       	rjmp	.+10     	; 0x2846 <CHK_Button+0x50e>

		case SW_UP_DN_NEXT:
			opMode = DEBUG_MODE;
    283c:	83 e0       	ldi	r24, 0x03	; 3
    283e:	80 93 29 02 	sts	0x0229, r24
			GLCD_ClearScreen();
    2842:	0e 94 99 05 	call	0xb32	; 0xb32 <GLCD_ClearScreen>
			break;
	}
}
    2846:	df 91       	pop	r29
    2848:	cf 91       	pop	r28
    284a:	08 95       	ret

0000284c <main>:
//                   *******MAIN*******                     //
//////////////////////////////////////////////////////////////
int main(){
	uint16_t i;
	
	DIO_Initialize();					// DIO Initialize
    284c:	0e 94 7d 08 	call	0x10fa	; 0x10fa <DIO_Initialize>
	Interrupt_Initialize();
    2850:	0e 94 9a 08 	call	0x1134	; 0x1134 <Interrupt_Initialize>
	WatchDog_Initialize();
    2854:	0e 94 a2 08 	call	0x1144	; 0x1144 <WatchDog_Initialize>
	Read_Eeprom();						// Read EEPROM
    2858:	0e 94 12 09 	call	0x1224	; 0x1224 <Read_Eeprom>
	System_Mode_Check();
    285c:	0e 94 02 09 	call	0x1204	; 0x1204 <System_Mode_Check>
	AD5421_Init();						// AD5421 Initialize
    2860:	0e 94 0c 03 	call	0x618	; 0x618 <AD5421_Init>
	LDC_Init(offset);				// LDC1312 Initialize
    2864:	80 91 76 02 	lds	r24, 0x0276
    2868:	90 91 77 02 	lds	r25, 0x0277
    286c:	0e 94 41 08 	call	0x1082	; 0x1082 <LDC_Init>
	AD5421_Output(3.8f);
    2870:	63 e3       	ldi	r22, 0x33	; 51
    2872:	73 e3       	ldi	r23, 0x33	; 51
    2874:	83 e7       	ldi	r24, 0x73	; 115
    2876:	90 e4       	ldi	r25, 0x40	; 64
    2878:	0e 94 3c 09 	call	0x1278	; 0x1278 <AD5421_Output>

	opMode = DP_MODE;					//Operation Mode
    287c:	10 92 29 02 	sts	0x0229, r1
	sysMode = GLCD_MODE;				//System Mode
    2880:	80 ec       	ldi	r24, 0xC0	; 192
    2882:	80 93 1e 02 	sts	0x021E, r24
	reloadFlag = TRUE;
    2886:	81 e0       	ldi	r24, 0x01	; 1
    2888:	80 93 33 02 	sts	0x0233, r24
	for(i=0; i<4; i++)
		offset_arr[i] = (offset>>(12-(4*i)))&0x000F;
    288c:	80 91 76 02 	lds	r24, 0x0276
    2890:	90 91 77 02 	lds	r25, 0x0277
    2894:	29 2f       	mov	r18, r25
    2896:	22 95       	swap	r18
    2898:	2f 70       	andi	r18, 0x0F	; 15
    289a:	20 93 20 02 	sts	0x0220, r18
    289e:	10 92 21 02 	sts	0x0221, r1
    28a2:	29 2f       	mov	r18, r25
    28a4:	33 27       	eor	r19, r19
    28a6:	2f 70       	andi	r18, 0x0F	; 15
    28a8:	30 70       	andi	r19, 0x00	; 0
    28aa:	30 93 23 02 	sts	0x0223, r19
    28ae:	20 93 22 02 	sts	0x0222, r18
    28b2:	9c 01       	movw	r18, r24
    28b4:	32 95       	swap	r19
    28b6:	22 95       	swap	r18
    28b8:	2f 70       	andi	r18, 0x0F	; 15
    28ba:	23 27       	eor	r18, r19
    28bc:	3f 70       	andi	r19, 0x0F	; 15
    28be:	23 27       	eor	r18, r19
    28c0:	2f 70       	andi	r18, 0x0F	; 15
    28c2:	30 70       	andi	r19, 0x00	; 0
    28c4:	30 93 25 02 	sts	0x0225, r19
    28c8:	20 93 24 02 	sts	0x0224, r18
    28cc:	8f 70       	andi	r24, 0x0F	; 15
    28ce:	90 70       	andi	r25, 0x00	; 0
    28d0:	90 93 27 02 	sts	0x0227, r25
    28d4:	80 93 26 02 	sts	0x0226, r24
	debugPage = 0;
    28d8:	10 92 75 02 	sts	0x0275, r1
    28dc:	10 92 74 02 	sts	0x0274, r1

    while(TRUE){
		wdt_reset();
    28e0:	a8 95       	wdr
		ldc_data= Read_LDC();
    28e2:	0e 94 89 09 	call	0x1312	; 0x1312 <Read_LDC>
    28e6:	60 93 8e 02 	sts	0x028E, r22
    28ea:	70 93 8f 02 	sts	0x028F, r23
    28ee:	80 93 90 02 	sts	0x0290, r24
    28f2:	90 93 91 02 	sts	0x0291, r25
		distance = Cal_Distance(ldc_data);
    28f6:	0e 94 04 0a 	call	0x1408	; 0x1408 <Cal_Distance>
    28fa:	dc 01       	movw	r26, r24
    28fc:	cb 01       	movw	r24, r22
    28fe:	80 93 34 02 	sts	0x0234, r24
    2902:	90 93 35 02 	sts	0x0235, r25
    2906:	a0 93 36 02 	sts	0x0236, r26
    290a:	b0 93 37 02 	sts	0x0237, r27
		current = CUR_Output(ldc_data);
    290e:	60 91 8e 02 	lds	r22, 0x028E
    2912:	70 91 8f 02 	lds	r23, 0x028F
    2916:	80 91 90 02 	lds	r24, 0x0290
    291a:	90 91 91 02 	lds	r25, 0x0291
    291e:	0e 94 d3 0a 	call	0x15a6	; 0x15a6 <CUR_Output>
    2922:	60 93 68 02 	sts	0x0268, r22
    2926:	70 93 69 02 	sts	0x0269, r23
    292a:	80 93 6a 02 	sts	0x026A, r24
    292e:	90 93 6b 02 	sts	0x026B, r25
		percent = Cal_Percent(current);
    2932:	0e 94 cc 0b 	call	0x1798	; 0x1798 <Cal_Percent>
    2936:	dc 01       	movw	r26, r24
    2938:	cb 01       	movw	r24, r22
    293a:	80 93 2f 02 	sts	0x022F, r24
    293e:	90 93 30 02 	sts	0x0230, r25
    2942:	a0 93 31 02 	sts	0x0231, r26
    2946:	b0 93 32 02 	sts	0x0232, r27
		
		if(sysMode == GLCD_MODE){
    294a:	80 91 1e 02 	lds	r24, 0x021E
    294e:	80 3c       	cpi	r24, 0xC0	; 192
    2950:	39 f6       	brne	.-114    	; 0x28e0 <main+0x94>
			if(opMode == DP_MODE){
    2952:	80 91 29 02 	lds	r24, 0x0229
    2956:	88 23       	and	r24, r24
    2958:	59 f4       	brne	.+22     	; 0x2970 <main+0x124>
				Dsp_Distance(distance);
    295a:	60 91 34 02 	lds	r22, 0x0234
    295e:	70 91 35 02 	lds	r23, 0x0235
    2962:	80 91 36 02 	lds	r24, 0x0236
    2966:	90 91 37 02 	lds	r25, 0x0237
    296a:	0e 94 28 0c 	call	0x1850	; 0x1850 <Dsp_Distance>
    296e:	18 c0       	rjmp	.+48     	; 0x29a0 <main+0x154>
			}
			else if(opMode == OFFSET_GAIN_MODE){
    2970:	81 30       	cpi	r24, 0x01	; 1
    2972:	19 f4       	brne	.+6      	; 0x297a <main+0x12e>
				Dsp_Offset_Gain();
    2974:	0e 94 29 0d 	call	0x1a52	; 0x1a52 <Dsp_Offset_Gain>
    2978:	13 c0       	rjmp	.+38     	; 0x29a0 <main+0x154>
			}
			else if(opMode == SET_MODE){
    297a:	82 30       	cpi	r24, 0x02	; 2
    297c:	19 f4       	brne	.+6      	; 0x2984 <main+0x138>
				Dsp_Setting();
    297e:	0e 94 ca 0e 	call	0x1d94	; 0x1d94 <Dsp_Setting>
    2982:	0e c0       	rjmp	.+28     	; 0x29a0 <main+0x154>
			}
			else if(opMode == DEBUG_MODE){
    2984:	83 30       	cpi	r24, 0x03	; 3
    2986:	19 f4       	brne	.+6      	; 0x298e <main+0x142>
				Dsp_Debugging();
    2988:	0e 94 3f 0f 	call	0x1e7e	; 0x1e7e <Dsp_Debugging>
    298c:	09 c0       	rjmp	.+18     	; 0x29a0 <main+0x154>
			}
			else if(opMode == OFFSET_MODE){
    298e:	84 30       	cpi	r24, 0x04	; 4
    2990:	19 f4       	brne	.+6      	; 0x2998 <main+0x14c>
				Dsp_Offset();
    2992:	0e 94 95 0d 	call	0x1b2a	; 0x1b2a <Dsp_Offset>
    2996:	04 c0       	rjmp	.+8      	; 0x29a0 <main+0x154>
			}
			else if(opMode == GAIN_MODE){
    2998:	85 30       	cpi	r24, 0x05	; 5
    299a:	11 f4       	brne	.+4      	; 0x29a0 <main+0x154>
				Dsp_Gain();
    299c:	0e 94 5e 0e 	call	0x1cbc	; 0x1cbc <Dsp_Gain>
			}
			CHK_Button();
    29a0:	0e 94 9c 11 	call	0x2338	; 0x2338 <CHK_Button>
    29a4:	9d cf       	rjmp	.-198    	; 0x28e0 <main+0x94>

000029a6 <__vector_1>:
		}
    }
}


ISR(INT0_vect){
    29a6:	1f 92       	push	r1
    29a8:	0f 92       	push	r0
    29aa:	0f b6       	in	r0, 0x3f	; 63
    29ac:	0f 92       	push	r0
    29ae:	11 24       	eor	r1, r1
    29b0:	2f 93       	push	r18
    29b2:	3f 93       	push	r19
    29b4:	4f 93       	push	r20
    29b6:	5f 93       	push	r21
    29b8:	6f 93       	push	r22
    29ba:	7f 93       	push	r23
    29bc:	8f 93       	push	r24
    29be:	9f 93       	push	r25
    29c0:	af 93       	push	r26
    29c2:	bf 93       	push	r27
    29c4:	ef 93       	push	r30
    29c6:	ff 93       	push	r31
	uint16_t tmp;

	tmp=Get_Status();
    29c8:	0e 94 7c 07 	call	0xef8	; 0xef8 <Get_Status>
	if(tmp&ERR_WD){
    29cc:	93 ff       	sbrs	r25, 3
    29ce:	14 c0       	rjmp	.+40     	; 0x29f8 <__vector_1+0x52>
		SETBIT(PORTC,PC2);
    29d0:	aa 9a       	sbi	0x15, 2	; 21
    29d2:	83 ec       	ldi	r24, 0xC3	; 195
    29d4:	99 e0       	ldi	r25, 0x09	; 9
    29d6:	01 97       	sbiw	r24, 0x01	; 1
    29d8:	f1 f7       	brne	.-4      	; 0x29d6 <__vector_1+0x30>
    29da:	00 c0       	rjmp	.+0      	; 0x29dc <__vector_1+0x36>
    29dc:	00 00       	nop
		_delay_ms(10);
		CLEARBIT(PORTC,PC2);
    29de:	aa 98       	cbi	0x15, 2	; 21
    29e0:	83 ec       	ldi	r24, 0xC3	; 195
    29e2:	99 e0       	ldi	r25, 0x09	; 9
    29e4:	01 97       	sbiw	r24, 0x01	; 1
    29e6:	f1 f7       	brne	.-4      	; 0x29e4 <__vector_1+0x3e>
    29e8:	00 c0       	rjmp	.+0      	; 0x29ea <__vector_1+0x44>
    29ea:	00 00       	nop
		_delay_ms(10);
		LDC_Init(offset);
    29ec:	80 91 76 02 	lds	r24, 0x0276
    29f0:	90 91 77 02 	lds	r25, 0x0277
    29f4:	0e 94 41 08 	call	0x1082	; 0x1082 <LDC_Init>
		sprintf(LCD,"ERROR: %04X",tmp);
		GLCD_GoTo(16, 5);
		GLCD_WriteString5x7(LCD);
	}
#endif
	GIFR = 0x00;
    29f8:	1a be       	out	0x3a, r1	; 58
    29fa:	ff 91       	pop	r31
    29fc:	ef 91       	pop	r30
    29fe:	bf 91       	pop	r27
    2a00:	af 91       	pop	r26
    2a02:	9f 91       	pop	r25
    2a04:	8f 91       	pop	r24
    2a06:	7f 91       	pop	r23
    2a08:	6f 91       	pop	r22
    2a0a:	5f 91       	pop	r21
    2a0c:	4f 91       	pop	r20
    2a0e:	3f 91       	pop	r19
    2a10:	2f 91       	pop	r18
    2a12:	0f 90       	pop	r0
    2a14:	0f be       	out	0x3f, r0	; 63
    2a16:	0f 90       	pop	r0
    2a18:	1f 90       	pop	r1
    2a1a:	18 95       	reti

00002a1c <__subsf3>:
    2a1c:	50 58       	subi	r21, 0x80	; 128

00002a1e <__addsf3>:
    2a1e:	bb 27       	eor	r27, r27
    2a20:	aa 27       	eor	r26, r26
    2a22:	0e d0       	rcall	.+28     	; 0x2a40 <__addsf3x>
    2a24:	70 c1       	rjmp	.+736    	; 0x2d06 <__fp_round>
    2a26:	61 d1       	rcall	.+706    	; 0x2cea <__fp_pscA>
    2a28:	30 f0       	brcs	.+12     	; 0x2a36 <__addsf3+0x18>
    2a2a:	66 d1       	rcall	.+716    	; 0x2cf8 <__fp_pscB>
    2a2c:	20 f0       	brcs	.+8      	; 0x2a36 <__addsf3+0x18>
    2a2e:	31 f4       	brne	.+12     	; 0x2a3c <__addsf3+0x1e>
    2a30:	9f 3f       	cpi	r25, 0xFF	; 255
    2a32:	11 f4       	brne	.+4      	; 0x2a38 <__addsf3+0x1a>
    2a34:	1e f4       	brtc	.+6      	; 0x2a3c <__addsf3+0x1e>
    2a36:	56 c1       	rjmp	.+684    	; 0x2ce4 <__fp_nan>
    2a38:	0e f4       	brtc	.+2      	; 0x2a3c <__addsf3+0x1e>
    2a3a:	e0 95       	com	r30
    2a3c:	e7 fb       	bst	r30, 7
    2a3e:	4c c1       	rjmp	.+664    	; 0x2cd8 <__fp_inf>

00002a40 <__addsf3x>:
    2a40:	e9 2f       	mov	r30, r25
    2a42:	72 d1       	rcall	.+740    	; 0x2d28 <__fp_split3>
    2a44:	80 f3       	brcs	.-32     	; 0x2a26 <__addsf3+0x8>
    2a46:	ba 17       	cp	r27, r26
    2a48:	62 07       	cpc	r22, r18
    2a4a:	73 07       	cpc	r23, r19
    2a4c:	84 07       	cpc	r24, r20
    2a4e:	95 07       	cpc	r25, r21
    2a50:	18 f0       	brcs	.+6      	; 0x2a58 <__addsf3x+0x18>
    2a52:	71 f4       	brne	.+28     	; 0x2a70 <__addsf3x+0x30>
    2a54:	9e f5       	brtc	.+102    	; 0x2abc <__addsf3x+0x7c>
    2a56:	8a c1       	rjmp	.+788    	; 0x2d6c <__fp_zero>
    2a58:	0e f4       	brtc	.+2      	; 0x2a5c <__addsf3x+0x1c>
    2a5a:	e0 95       	com	r30
    2a5c:	0b 2e       	mov	r0, r27
    2a5e:	ba 2f       	mov	r27, r26
    2a60:	a0 2d       	mov	r26, r0
    2a62:	0b 01       	movw	r0, r22
    2a64:	b9 01       	movw	r22, r18
    2a66:	90 01       	movw	r18, r0
    2a68:	0c 01       	movw	r0, r24
    2a6a:	ca 01       	movw	r24, r20
    2a6c:	a0 01       	movw	r20, r0
    2a6e:	11 24       	eor	r1, r1
    2a70:	ff 27       	eor	r31, r31
    2a72:	59 1b       	sub	r21, r25
    2a74:	99 f0       	breq	.+38     	; 0x2a9c <__addsf3x+0x5c>
    2a76:	59 3f       	cpi	r21, 0xF9	; 249
    2a78:	50 f4       	brcc	.+20     	; 0x2a8e <__addsf3x+0x4e>
    2a7a:	50 3e       	cpi	r21, 0xE0	; 224
    2a7c:	68 f1       	brcs	.+90     	; 0x2ad8 <__addsf3x+0x98>
    2a7e:	1a 16       	cp	r1, r26
    2a80:	f0 40       	sbci	r31, 0x00	; 0
    2a82:	a2 2f       	mov	r26, r18
    2a84:	23 2f       	mov	r18, r19
    2a86:	34 2f       	mov	r19, r20
    2a88:	44 27       	eor	r20, r20
    2a8a:	58 5f       	subi	r21, 0xF8	; 248
    2a8c:	f3 cf       	rjmp	.-26     	; 0x2a74 <__addsf3x+0x34>
    2a8e:	46 95       	lsr	r20
    2a90:	37 95       	ror	r19
    2a92:	27 95       	ror	r18
    2a94:	a7 95       	ror	r26
    2a96:	f0 40       	sbci	r31, 0x00	; 0
    2a98:	53 95       	inc	r21
    2a9a:	c9 f7       	brne	.-14     	; 0x2a8e <__addsf3x+0x4e>
    2a9c:	7e f4       	brtc	.+30     	; 0x2abc <__addsf3x+0x7c>
    2a9e:	1f 16       	cp	r1, r31
    2aa0:	ba 0b       	sbc	r27, r26
    2aa2:	62 0b       	sbc	r22, r18
    2aa4:	73 0b       	sbc	r23, r19
    2aa6:	84 0b       	sbc	r24, r20
    2aa8:	ba f0       	brmi	.+46     	; 0x2ad8 <__addsf3x+0x98>
    2aaa:	91 50       	subi	r25, 0x01	; 1
    2aac:	a1 f0       	breq	.+40     	; 0x2ad6 <__addsf3x+0x96>
    2aae:	ff 0f       	add	r31, r31
    2ab0:	bb 1f       	adc	r27, r27
    2ab2:	66 1f       	adc	r22, r22
    2ab4:	77 1f       	adc	r23, r23
    2ab6:	88 1f       	adc	r24, r24
    2ab8:	c2 f7       	brpl	.-16     	; 0x2aaa <__addsf3x+0x6a>
    2aba:	0e c0       	rjmp	.+28     	; 0x2ad8 <__addsf3x+0x98>
    2abc:	ba 0f       	add	r27, r26
    2abe:	62 1f       	adc	r22, r18
    2ac0:	73 1f       	adc	r23, r19
    2ac2:	84 1f       	adc	r24, r20
    2ac4:	48 f4       	brcc	.+18     	; 0x2ad8 <__addsf3x+0x98>
    2ac6:	87 95       	ror	r24
    2ac8:	77 95       	ror	r23
    2aca:	67 95       	ror	r22
    2acc:	b7 95       	ror	r27
    2ace:	f7 95       	ror	r31
    2ad0:	9e 3f       	cpi	r25, 0xFE	; 254
    2ad2:	08 f0       	brcs	.+2      	; 0x2ad6 <__addsf3x+0x96>
    2ad4:	b3 cf       	rjmp	.-154    	; 0x2a3c <__addsf3+0x1e>
    2ad6:	93 95       	inc	r25
    2ad8:	88 0f       	add	r24, r24
    2ada:	08 f0       	brcs	.+2      	; 0x2ade <__addsf3x+0x9e>
    2adc:	99 27       	eor	r25, r25
    2ade:	ee 0f       	add	r30, r30
    2ae0:	97 95       	ror	r25
    2ae2:	87 95       	ror	r24
    2ae4:	08 95       	ret

00002ae6 <__cmpsf2>:
    2ae6:	d4 d0       	rcall	.+424    	; 0x2c90 <__fp_cmp>
    2ae8:	08 f4       	brcc	.+2      	; 0x2aec <__cmpsf2+0x6>
    2aea:	81 e0       	ldi	r24, 0x01	; 1
    2aec:	08 95       	ret

00002aee <__divsf3>:
    2aee:	0c d0       	rcall	.+24     	; 0x2b08 <__divsf3x>
    2af0:	0a c1       	rjmp	.+532    	; 0x2d06 <__fp_round>
    2af2:	02 d1       	rcall	.+516    	; 0x2cf8 <__fp_pscB>
    2af4:	40 f0       	brcs	.+16     	; 0x2b06 <__divsf3+0x18>
    2af6:	f9 d0       	rcall	.+498    	; 0x2cea <__fp_pscA>
    2af8:	30 f0       	brcs	.+12     	; 0x2b06 <__divsf3+0x18>
    2afa:	21 f4       	brne	.+8      	; 0x2b04 <__divsf3+0x16>
    2afc:	5f 3f       	cpi	r21, 0xFF	; 255
    2afe:	19 f0       	breq	.+6      	; 0x2b06 <__divsf3+0x18>
    2b00:	eb c0       	rjmp	.+470    	; 0x2cd8 <__fp_inf>
    2b02:	51 11       	cpse	r21, r1
    2b04:	34 c1       	rjmp	.+616    	; 0x2d6e <__fp_szero>
    2b06:	ee c0       	rjmp	.+476    	; 0x2ce4 <__fp_nan>

00002b08 <__divsf3x>:
    2b08:	0f d1       	rcall	.+542    	; 0x2d28 <__fp_split3>
    2b0a:	98 f3       	brcs	.-26     	; 0x2af2 <__divsf3+0x4>

00002b0c <__divsf3_pse>:
    2b0c:	99 23       	and	r25, r25
    2b0e:	c9 f3       	breq	.-14     	; 0x2b02 <__divsf3+0x14>
    2b10:	55 23       	and	r21, r21
    2b12:	b1 f3       	breq	.-20     	; 0x2b00 <__divsf3+0x12>
    2b14:	95 1b       	sub	r25, r21
    2b16:	55 0b       	sbc	r21, r21
    2b18:	bb 27       	eor	r27, r27
    2b1a:	aa 27       	eor	r26, r26
    2b1c:	62 17       	cp	r22, r18
    2b1e:	73 07       	cpc	r23, r19
    2b20:	84 07       	cpc	r24, r20
    2b22:	38 f0       	brcs	.+14     	; 0x2b32 <__divsf3_pse+0x26>
    2b24:	9f 5f       	subi	r25, 0xFF	; 255
    2b26:	5f 4f       	sbci	r21, 0xFF	; 255
    2b28:	22 0f       	add	r18, r18
    2b2a:	33 1f       	adc	r19, r19
    2b2c:	44 1f       	adc	r20, r20
    2b2e:	aa 1f       	adc	r26, r26
    2b30:	a9 f3       	breq	.-22     	; 0x2b1c <__divsf3_pse+0x10>
    2b32:	33 d0       	rcall	.+102    	; 0x2b9a <__divsf3_pse+0x8e>
    2b34:	0e 2e       	mov	r0, r30
    2b36:	3a f0       	brmi	.+14     	; 0x2b46 <__divsf3_pse+0x3a>
    2b38:	e0 e8       	ldi	r30, 0x80	; 128
    2b3a:	30 d0       	rcall	.+96     	; 0x2b9c <__divsf3_pse+0x90>
    2b3c:	91 50       	subi	r25, 0x01	; 1
    2b3e:	50 40       	sbci	r21, 0x00	; 0
    2b40:	e6 95       	lsr	r30
    2b42:	00 1c       	adc	r0, r0
    2b44:	ca f7       	brpl	.-14     	; 0x2b38 <__divsf3_pse+0x2c>
    2b46:	29 d0       	rcall	.+82     	; 0x2b9a <__divsf3_pse+0x8e>
    2b48:	fe 2f       	mov	r31, r30
    2b4a:	27 d0       	rcall	.+78     	; 0x2b9a <__divsf3_pse+0x8e>
    2b4c:	66 0f       	add	r22, r22
    2b4e:	77 1f       	adc	r23, r23
    2b50:	88 1f       	adc	r24, r24
    2b52:	bb 1f       	adc	r27, r27
    2b54:	26 17       	cp	r18, r22
    2b56:	37 07       	cpc	r19, r23
    2b58:	48 07       	cpc	r20, r24
    2b5a:	ab 07       	cpc	r26, r27
    2b5c:	b0 e8       	ldi	r27, 0x80	; 128
    2b5e:	09 f0       	breq	.+2      	; 0x2b62 <__divsf3_pse+0x56>
    2b60:	bb 0b       	sbc	r27, r27
    2b62:	80 2d       	mov	r24, r0
    2b64:	bf 01       	movw	r22, r30
    2b66:	ff 27       	eor	r31, r31
    2b68:	93 58       	subi	r25, 0x83	; 131
    2b6a:	5f 4f       	sbci	r21, 0xFF	; 255
    2b6c:	2a f0       	brmi	.+10     	; 0x2b78 <__divsf3_pse+0x6c>
    2b6e:	9e 3f       	cpi	r25, 0xFE	; 254
    2b70:	51 05       	cpc	r21, r1
    2b72:	68 f0       	brcs	.+26     	; 0x2b8e <__divsf3_pse+0x82>
    2b74:	b1 c0       	rjmp	.+354    	; 0x2cd8 <__fp_inf>
    2b76:	fb c0       	rjmp	.+502    	; 0x2d6e <__fp_szero>
    2b78:	5f 3f       	cpi	r21, 0xFF	; 255
    2b7a:	ec f3       	brlt	.-6      	; 0x2b76 <__divsf3_pse+0x6a>
    2b7c:	98 3e       	cpi	r25, 0xE8	; 232
    2b7e:	dc f3       	brlt	.-10     	; 0x2b76 <__divsf3_pse+0x6a>
    2b80:	86 95       	lsr	r24
    2b82:	77 95       	ror	r23
    2b84:	67 95       	ror	r22
    2b86:	b7 95       	ror	r27
    2b88:	f7 95       	ror	r31
    2b8a:	9f 5f       	subi	r25, 0xFF	; 255
    2b8c:	c9 f7       	brne	.-14     	; 0x2b80 <__divsf3_pse+0x74>
    2b8e:	88 0f       	add	r24, r24
    2b90:	91 1d       	adc	r25, r1
    2b92:	96 95       	lsr	r25
    2b94:	87 95       	ror	r24
    2b96:	97 f9       	bld	r25, 7
    2b98:	08 95       	ret
    2b9a:	e1 e0       	ldi	r30, 0x01	; 1
    2b9c:	66 0f       	add	r22, r22
    2b9e:	77 1f       	adc	r23, r23
    2ba0:	88 1f       	adc	r24, r24
    2ba2:	bb 1f       	adc	r27, r27
    2ba4:	62 17       	cp	r22, r18
    2ba6:	73 07       	cpc	r23, r19
    2ba8:	84 07       	cpc	r24, r20
    2baa:	ba 07       	cpc	r27, r26
    2bac:	20 f0       	brcs	.+8      	; 0x2bb6 <__divsf3_pse+0xaa>
    2bae:	62 1b       	sub	r22, r18
    2bb0:	73 0b       	sbc	r23, r19
    2bb2:	84 0b       	sbc	r24, r20
    2bb4:	ba 0b       	sbc	r27, r26
    2bb6:	ee 1f       	adc	r30, r30
    2bb8:	88 f7       	brcc	.-30     	; 0x2b9c <__divsf3_pse+0x90>
    2bba:	e0 95       	com	r30
    2bbc:	08 95       	ret

00002bbe <__fixunssfsi>:
    2bbe:	bc d0       	rcall	.+376    	; 0x2d38 <__fp_splitA>
    2bc0:	88 f0       	brcs	.+34     	; 0x2be4 <__fixunssfsi+0x26>
    2bc2:	9f 57       	subi	r25, 0x7F	; 127
    2bc4:	90 f0       	brcs	.+36     	; 0x2bea <__fixunssfsi+0x2c>
    2bc6:	b9 2f       	mov	r27, r25
    2bc8:	99 27       	eor	r25, r25
    2bca:	b7 51       	subi	r27, 0x17	; 23
    2bcc:	a0 f0       	brcs	.+40     	; 0x2bf6 <__fixunssfsi+0x38>
    2bce:	d1 f0       	breq	.+52     	; 0x2c04 <__fixunssfsi+0x46>
    2bd0:	66 0f       	add	r22, r22
    2bd2:	77 1f       	adc	r23, r23
    2bd4:	88 1f       	adc	r24, r24
    2bd6:	99 1f       	adc	r25, r25
    2bd8:	1a f0       	brmi	.+6      	; 0x2be0 <__fixunssfsi+0x22>
    2bda:	ba 95       	dec	r27
    2bdc:	c9 f7       	brne	.-14     	; 0x2bd0 <__fixunssfsi+0x12>
    2bde:	12 c0       	rjmp	.+36     	; 0x2c04 <__fixunssfsi+0x46>
    2be0:	b1 30       	cpi	r27, 0x01	; 1
    2be2:	81 f0       	breq	.+32     	; 0x2c04 <__fixunssfsi+0x46>
    2be4:	c3 d0       	rcall	.+390    	; 0x2d6c <__fp_zero>
    2be6:	b1 e0       	ldi	r27, 0x01	; 1
    2be8:	08 95       	ret
    2bea:	c0 c0       	rjmp	.+384    	; 0x2d6c <__fp_zero>
    2bec:	67 2f       	mov	r22, r23
    2bee:	78 2f       	mov	r23, r24
    2bf0:	88 27       	eor	r24, r24
    2bf2:	b8 5f       	subi	r27, 0xF8	; 248
    2bf4:	39 f0       	breq	.+14     	; 0x2c04 <__fixunssfsi+0x46>
    2bf6:	b9 3f       	cpi	r27, 0xF9	; 249
    2bf8:	cc f3       	brlt	.-14     	; 0x2bec <__fixunssfsi+0x2e>
    2bfa:	86 95       	lsr	r24
    2bfc:	77 95       	ror	r23
    2bfe:	67 95       	ror	r22
    2c00:	b3 95       	inc	r27
    2c02:	d9 f7       	brne	.-10     	; 0x2bfa <__fixunssfsi+0x3c>
    2c04:	3e f4       	brtc	.+14     	; 0x2c14 <__fixunssfsi+0x56>
    2c06:	90 95       	com	r25
    2c08:	80 95       	com	r24
    2c0a:	70 95       	com	r23
    2c0c:	61 95       	neg	r22
    2c0e:	7f 4f       	sbci	r23, 0xFF	; 255
    2c10:	8f 4f       	sbci	r24, 0xFF	; 255
    2c12:	9f 4f       	sbci	r25, 0xFF	; 255
    2c14:	08 95       	ret

00002c16 <__floatunsisf>:
    2c16:	e8 94       	clt
    2c18:	09 c0       	rjmp	.+18     	; 0x2c2c <__floatsisf+0x12>

00002c1a <__floatsisf>:
    2c1a:	97 fb       	bst	r25, 7
    2c1c:	3e f4       	brtc	.+14     	; 0x2c2c <__floatsisf+0x12>
    2c1e:	90 95       	com	r25
    2c20:	80 95       	com	r24
    2c22:	70 95       	com	r23
    2c24:	61 95       	neg	r22
    2c26:	7f 4f       	sbci	r23, 0xFF	; 255
    2c28:	8f 4f       	sbci	r24, 0xFF	; 255
    2c2a:	9f 4f       	sbci	r25, 0xFF	; 255
    2c2c:	99 23       	and	r25, r25
    2c2e:	a9 f0       	breq	.+42     	; 0x2c5a <__floatsisf+0x40>
    2c30:	f9 2f       	mov	r31, r25
    2c32:	96 e9       	ldi	r25, 0x96	; 150
    2c34:	bb 27       	eor	r27, r27
    2c36:	93 95       	inc	r25
    2c38:	f6 95       	lsr	r31
    2c3a:	87 95       	ror	r24
    2c3c:	77 95       	ror	r23
    2c3e:	67 95       	ror	r22
    2c40:	b7 95       	ror	r27
    2c42:	f1 11       	cpse	r31, r1
    2c44:	f8 cf       	rjmp	.-16     	; 0x2c36 <__floatsisf+0x1c>
    2c46:	fa f4       	brpl	.+62     	; 0x2c86 <__floatsisf+0x6c>
    2c48:	bb 0f       	add	r27, r27
    2c4a:	11 f4       	brne	.+4      	; 0x2c50 <__floatsisf+0x36>
    2c4c:	60 ff       	sbrs	r22, 0
    2c4e:	1b c0       	rjmp	.+54     	; 0x2c86 <__floatsisf+0x6c>
    2c50:	6f 5f       	subi	r22, 0xFF	; 255
    2c52:	7f 4f       	sbci	r23, 0xFF	; 255
    2c54:	8f 4f       	sbci	r24, 0xFF	; 255
    2c56:	9f 4f       	sbci	r25, 0xFF	; 255
    2c58:	16 c0       	rjmp	.+44     	; 0x2c86 <__floatsisf+0x6c>
    2c5a:	88 23       	and	r24, r24
    2c5c:	11 f0       	breq	.+4      	; 0x2c62 <__floatsisf+0x48>
    2c5e:	96 e9       	ldi	r25, 0x96	; 150
    2c60:	11 c0       	rjmp	.+34     	; 0x2c84 <__floatsisf+0x6a>
    2c62:	77 23       	and	r23, r23
    2c64:	21 f0       	breq	.+8      	; 0x2c6e <__floatsisf+0x54>
    2c66:	9e e8       	ldi	r25, 0x8E	; 142
    2c68:	87 2f       	mov	r24, r23
    2c6a:	76 2f       	mov	r23, r22
    2c6c:	05 c0       	rjmp	.+10     	; 0x2c78 <__floatsisf+0x5e>
    2c6e:	66 23       	and	r22, r22
    2c70:	71 f0       	breq	.+28     	; 0x2c8e <__floatsisf+0x74>
    2c72:	96 e8       	ldi	r25, 0x86	; 134
    2c74:	86 2f       	mov	r24, r22
    2c76:	70 e0       	ldi	r23, 0x00	; 0
    2c78:	60 e0       	ldi	r22, 0x00	; 0
    2c7a:	2a f0       	brmi	.+10     	; 0x2c86 <__floatsisf+0x6c>
    2c7c:	9a 95       	dec	r25
    2c7e:	66 0f       	add	r22, r22
    2c80:	77 1f       	adc	r23, r23
    2c82:	88 1f       	adc	r24, r24
    2c84:	da f7       	brpl	.-10     	; 0x2c7c <__floatsisf+0x62>
    2c86:	88 0f       	add	r24, r24
    2c88:	96 95       	lsr	r25
    2c8a:	87 95       	ror	r24
    2c8c:	97 f9       	bld	r25, 7
    2c8e:	08 95       	ret

00002c90 <__fp_cmp>:
    2c90:	99 0f       	add	r25, r25
    2c92:	00 08       	sbc	r0, r0
    2c94:	55 0f       	add	r21, r21
    2c96:	aa 0b       	sbc	r26, r26
    2c98:	e0 e8       	ldi	r30, 0x80	; 128
    2c9a:	fe ef       	ldi	r31, 0xFE	; 254
    2c9c:	16 16       	cp	r1, r22
    2c9e:	17 06       	cpc	r1, r23
    2ca0:	e8 07       	cpc	r30, r24
    2ca2:	f9 07       	cpc	r31, r25
    2ca4:	c0 f0       	brcs	.+48     	; 0x2cd6 <__fp_cmp+0x46>
    2ca6:	12 16       	cp	r1, r18
    2ca8:	13 06       	cpc	r1, r19
    2caa:	e4 07       	cpc	r30, r20
    2cac:	f5 07       	cpc	r31, r21
    2cae:	98 f0       	brcs	.+38     	; 0x2cd6 <__fp_cmp+0x46>
    2cb0:	62 1b       	sub	r22, r18
    2cb2:	73 0b       	sbc	r23, r19
    2cb4:	84 0b       	sbc	r24, r20
    2cb6:	95 0b       	sbc	r25, r21
    2cb8:	39 f4       	brne	.+14     	; 0x2cc8 <__fp_cmp+0x38>
    2cba:	0a 26       	eor	r0, r26
    2cbc:	61 f0       	breq	.+24     	; 0x2cd6 <__fp_cmp+0x46>
    2cbe:	23 2b       	or	r18, r19
    2cc0:	24 2b       	or	r18, r20
    2cc2:	25 2b       	or	r18, r21
    2cc4:	21 f4       	brne	.+8      	; 0x2cce <__fp_cmp+0x3e>
    2cc6:	08 95       	ret
    2cc8:	0a 26       	eor	r0, r26
    2cca:	09 f4       	brne	.+2      	; 0x2cce <__fp_cmp+0x3e>
    2ccc:	a1 40       	sbci	r26, 0x01	; 1
    2cce:	a6 95       	lsr	r26
    2cd0:	8f ef       	ldi	r24, 0xFF	; 255
    2cd2:	81 1d       	adc	r24, r1
    2cd4:	81 1d       	adc	r24, r1
    2cd6:	08 95       	ret

00002cd8 <__fp_inf>:
    2cd8:	97 f9       	bld	r25, 7
    2cda:	9f 67       	ori	r25, 0x7F	; 127
    2cdc:	80 e8       	ldi	r24, 0x80	; 128
    2cde:	70 e0       	ldi	r23, 0x00	; 0
    2ce0:	60 e0       	ldi	r22, 0x00	; 0
    2ce2:	08 95       	ret

00002ce4 <__fp_nan>:
    2ce4:	9f ef       	ldi	r25, 0xFF	; 255
    2ce6:	80 ec       	ldi	r24, 0xC0	; 192
    2ce8:	08 95       	ret

00002cea <__fp_pscA>:
    2cea:	00 24       	eor	r0, r0
    2cec:	0a 94       	dec	r0
    2cee:	16 16       	cp	r1, r22
    2cf0:	17 06       	cpc	r1, r23
    2cf2:	18 06       	cpc	r1, r24
    2cf4:	09 06       	cpc	r0, r25
    2cf6:	08 95       	ret

00002cf8 <__fp_pscB>:
    2cf8:	00 24       	eor	r0, r0
    2cfa:	0a 94       	dec	r0
    2cfc:	12 16       	cp	r1, r18
    2cfe:	13 06       	cpc	r1, r19
    2d00:	14 06       	cpc	r1, r20
    2d02:	05 06       	cpc	r0, r21
    2d04:	08 95       	ret

00002d06 <__fp_round>:
    2d06:	09 2e       	mov	r0, r25
    2d08:	03 94       	inc	r0
    2d0a:	00 0c       	add	r0, r0
    2d0c:	11 f4       	brne	.+4      	; 0x2d12 <__fp_round+0xc>
    2d0e:	88 23       	and	r24, r24
    2d10:	52 f0       	brmi	.+20     	; 0x2d26 <__fp_round+0x20>
    2d12:	bb 0f       	add	r27, r27
    2d14:	40 f4       	brcc	.+16     	; 0x2d26 <__fp_round+0x20>
    2d16:	bf 2b       	or	r27, r31
    2d18:	11 f4       	brne	.+4      	; 0x2d1e <__fp_round+0x18>
    2d1a:	60 ff       	sbrs	r22, 0
    2d1c:	04 c0       	rjmp	.+8      	; 0x2d26 <__fp_round+0x20>
    2d1e:	6f 5f       	subi	r22, 0xFF	; 255
    2d20:	7f 4f       	sbci	r23, 0xFF	; 255
    2d22:	8f 4f       	sbci	r24, 0xFF	; 255
    2d24:	9f 4f       	sbci	r25, 0xFF	; 255
    2d26:	08 95       	ret

00002d28 <__fp_split3>:
    2d28:	57 fd       	sbrc	r21, 7
    2d2a:	90 58       	subi	r25, 0x80	; 128
    2d2c:	44 0f       	add	r20, r20
    2d2e:	55 1f       	adc	r21, r21
    2d30:	59 f0       	breq	.+22     	; 0x2d48 <__fp_splitA+0x10>
    2d32:	5f 3f       	cpi	r21, 0xFF	; 255
    2d34:	71 f0       	breq	.+28     	; 0x2d52 <__fp_splitA+0x1a>
    2d36:	47 95       	ror	r20

00002d38 <__fp_splitA>:
    2d38:	88 0f       	add	r24, r24
    2d3a:	97 fb       	bst	r25, 7
    2d3c:	99 1f       	adc	r25, r25
    2d3e:	61 f0       	breq	.+24     	; 0x2d58 <__fp_splitA+0x20>
    2d40:	9f 3f       	cpi	r25, 0xFF	; 255
    2d42:	79 f0       	breq	.+30     	; 0x2d62 <__fp_splitA+0x2a>
    2d44:	87 95       	ror	r24
    2d46:	08 95       	ret
    2d48:	12 16       	cp	r1, r18
    2d4a:	13 06       	cpc	r1, r19
    2d4c:	14 06       	cpc	r1, r20
    2d4e:	55 1f       	adc	r21, r21
    2d50:	f2 cf       	rjmp	.-28     	; 0x2d36 <__fp_split3+0xe>
    2d52:	46 95       	lsr	r20
    2d54:	f1 df       	rcall	.-30     	; 0x2d38 <__fp_splitA>
    2d56:	08 c0       	rjmp	.+16     	; 0x2d68 <__fp_splitA+0x30>
    2d58:	16 16       	cp	r1, r22
    2d5a:	17 06       	cpc	r1, r23
    2d5c:	18 06       	cpc	r1, r24
    2d5e:	99 1f       	adc	r25, r25
    2d60:	f1 cf       	rjmp	.-30     	; 0x2d44 <__fp_splitA+0xc>
    2d62:	86 95       	lsr	r24
    2d64:	71 05       	cpc	r23, r1
    2d66:	61 05       	cpc	r22, r1
    2d68:	08 94       	sec
    2d6a:	08 95       	ret

00002d6c <__fp_zero>:
    2d6c:	e8 94       	clt

00002d6e <__fp_szero>:
    2d6e:	bb 27       	eor	r27, r27
    2d70:	66 27       	eor	r22, r22
    2d72:	77 27       	eor	r23, r23
    2d74:	cb 01       	movw	r24, r22
    2d76:	97 f9       	bld	r25, 7
    2d78:	08 95       	ret

00002d7a <__gesf2>:
    2d7a:	8a df       	rcall	.-236    	; 0x2c90 <__fp_cmp>
    2d7c:	08 f4       	brcc	.+2      	; 0x2d80 <__gesf2+0x6>
    2d7e:	8f ef       	ldi	r24, 0xFF	; 255
    2d80:	08 95       	ret

00002d82 <__mulsf3>:
    2d82:	0b d0       	rcall	.+22     	; 0x2d9a <__mulsf3x>
    2d84:	c0 cf       	rjmp	.-128    	; 0x2d06 <__fp_round>
    2d86:	b1 df       	rcall	.-158    	; 0x2cea <__fp_pscA>
    2d88:	28 f0       	brcs	.+10     	; 0x2d94 <__mulsf3+0x12>
    2d8a:	b6 df       	rcall	.-148    	; 0x2cf8 <__fp_pscB>
    2d8c:	18 f0       	brcs	.+6      	; 0x2d94 <__mulsf3+0x12>
    2d8e:	95 23       	and	r25, r21
    2d90:	09 f0       	breq	.+2      	; 0x2d94 <__mulsf3+0x12>
    2d92:	a2 cf       	rjmp	.-188    	; 0x2cd8 <__fp_inf>
    2d94:	a7 cf       	rjmp	.-178    	; 0x2ce4 <__fp_nan>
    2d96:	11 24       	eor	r1, r1
    2d98:	ea cf       	rjmp	.-44     	; 0x2d6e <__fp_szero>

00002d9a <__mulsf3x>:
    2d9a:	c6 df       	rcall	.-116    	; 0x2d28 <__fp_split3>
    2d9c:	a0 f3       	brcs	.-24     	; 0x2d86 <__mulsf3+0x4>

00002d9e <__mulsf3_pse>:
    2d9e:	95 9f       	mul	r25, r21
    2da0:	d1 f3       	breq	.-12     	; 0x2d96 <__mulsf3+0x14>
    2da2:	95 0f       	add	r25, r21
    2da4:	50 e0       	ldi	r21, 0x00	; 0
    2da6:	55 1f       	adc	r21, r21
    2da8:	62 9f       	mul	r22, r18
    2daa:	f0 01       	movw	r30, r0
    2dac:	72 9f       	mul	r23, r18
    2dae:	bb 27       	eor	r27, r27
    2db0:	f0 0d       	add	r31, r0
    2db2:	b1 1d       	adc	r27, r1
    2db4:	63 9f       	mul	r22, r19
    2db6:	aa 27       	eor	r26, r26
    2db8:	f0 0d       	add	r31, r0
    2dba:	b1 1d       	adc	r27, r1
    2dbc:	aa 1f       	adc	r26, r26
    2dbe:	64 9f       	mul	r22, r20
    2dc0:	66 27       	eor	r22, r22
    2dc2:	b0 0d       	add	r27, r0
    2dc4:	a1 1d       	adc	r26, r1
    2dc6:	66 1f       	adc	r22, r22
    2dc8:	82 9f       	mul	r24, r18
    2dca:	22 27       	eor	r18, r18
    2dcc:	b0 0d       	add	r27, r0
    2dce:	a1 1d       	adc	r26, r1
    2dd0:	62 1f       	adc	r22, r18
    2dd2:	73 9f       	mul	r23, r19
    2dd4:	b0 0d       	add	r27, r0
    2dd6:	a1 1d       	adc	r26, r1
    2dd8:	62 1f       	adc	r22, r18
    2dda:	83 9f       	mul	r24, r19
    2ddc:	a0 0d       	add	r26, r0
    2dde:	61 1d       	adc	r22, r1
    2de0:	22 1f       	adc	r18, r18
    2de2:	74 9f       	mul	r23, r20
    2de4:	33 27       	eor	r19, r19
    2de6:	a0 0d       	add	r26, r0
    2de8:	61 1d       	adc	r22, r1
    2dea:	23 1f       	adc	r18, r19
    2dec:	84 9f       	mul	r24, r20
    2dee:	60 0d       	add	r22, r0
    2df0:	21 1d       	adc	r18, r1
    2df2:	82 2f       	mov	r24, r18
    2df4:	76 2f       	mov	r23, r22
    2df6:	6a 2f       	mov	r22, r26
    2df8:	11 24       	eor	r1, r1
    2dfa:	9f 57       	subi	r25, 0x7F	; 127
    2dfc:	50 40       	sbci	r21, 0x00	; 0
    2dfe:	8a f0       	brmi	.+34     	; 0x2e22 <__mulsf3_pse+0x84>
    2e00:	e1 f0       	breq	.+56     	; 0x2e3a <__mulsf3_pse+0x9c>
    2e02:	88 23       	and	r24, r24
    2e04:	4a f0       	brmi	.+18     	; 0x2e18 <__mulsf3_pse+0x7a>
    2e06:	ee 0f       	add	r30, r30
    2e08:	ff 1f       	adc	r31, r31
    2e0a:	bb 1f       	adc	r27, r27
    2e0c:	66 1f       	adc	r22, r22
    2e0e:	77 1f       	adc	r23, r23
    2e10:	88 1f       	adc	r24, r24
    2e12:	91 50       	subi	r25, 0x01	; 1
    2e14:	50 40       	sbci	r21, 0x00	; 0
    2e16:	a9 f7       	brne	.-22     	; 0x2e02 <__mulsf3_pse+0x64>
    2e18:	9e 3f       	cpi	r25, 0xFE	; 254
    2e1a:	51 05       	cpc	r21, r1
    2e1c:	70 f0       	brcs	.+28     	; 0x2e3a <__mulsf3_pse+0x9c>
    2e1e:	5c cf       	rjmp	.-328    	; 0x2cd8 <__fp_inf>
    2e20:	a6 cf       	rjmp	.-180    	; 0x2d6e <__fp_szero>
    2e22:	5f 3f       	cpi	r21, 0xFF	; 255
    2e24:	ec f3       	brlt	.-6      	; 0x2e20 <__mulsf3_pse+0x82>
    2e26:	98 3e       	cpi	r25, 0xE8	; 232
    2e28:	dc f3       	brlt	.-10     	; 0x2e20 <__mulsf3_pse+0x82>
    2e2a:	86 95       	lsr	r24
    2e2c:	77 95       	ror	r23
    2e2e:	67 95       	ror	r22
    2e30:	b7 95       	ror	r27
    2e32:	f7 95       	ror	r31
    2e34:	e7 95       	ror	r30
    2e36:	9f 5f       	subi	r25, 0xFF	; 255
    2e38:	c1 f7       	brne	.-16     	; 0x2e2a <__mulsf3_pse+0x8c>
    2e3a:	fe 2b       	or	r31, r30
    2e3c:	88 0f       	add	r24, r24
    2e3e:	91 1d       	adc	r25, r1
    2e40:	96 95       	lsr	r25
    2e42:	87 95       	ror	r24
    2e44:	97 f9       	bld	r25, 7
    2e46:	08 95       	ret

00002e48 <__udivmodqi4>:
    2e48:	99 1b       	sub	r25, r25
    2e4a:	79 e0       	ldi	r23, 0x09	; 9
    2e4c:	04 c0       	rjmp	.+8      	; 0x2e56 <__udivmodqi4_ep>

00002e4e <__udivmodqi4_loop>:
    2e4e:	99 1f       	adc	r25, r25
    2e50:	96 17       	cp	r25, r22
    2e52:	08 f0       	brcs	.+2      	; 0x2e56 <__udivmodqi4_ep>
    2e54:	96 1b       	sub	r25, r22

00002e56 <__udivmodqi4_ep>:
    2e56:	88 1f       	adc	r24, r24
    2e58:	7a 95       	dec	r23
    2e5a:	c9 f7       	brne	.-14     	; 0x2e4e <__udivmodqi4_loop>
    2e5c:	80 95       	com	r24
    2e5e:	08 95       	ret

00002e60 <__divmodhi4>:
    2e60:	97 fb       	bst	r25, 7
    2e62:	09 2e       	mov	r0, r25
    2e64:	07 26       	eor	r0, r23
    2e66:	0a d0       	rcall	.+20     	; 0x2e7c <__divmodhi4_neg1>
    2e68:	77 fd       	sbrc	r23, 7
    2e6a:	04 d0       	rcall	.+8      	; 0x2e74 <__divmodhi4_neg2>
    2e6c:	0c d0       	rcall	.+24     	; 0x2e86 <__udivmodhi4>
    2e6e:	06 d0       	rcall	.+12     	; 0x2e7c <__divmodhi4_neg1>
    2e70:	00 20       	and	r0, r0
    2e72:	1a f4       	brpl	.+6      	; 0x2e7a <__divmodhi4_exit>

00002e74 <__divmodhi4_neg2>:
    2e74:	70 95       	com	r23
    2e76:	61 95       	neg	r22
    2e78:	7f 4f       	sbci	r23, 0xFF	; 255

00002e7a <__divmodhi4_exit>:
    2e7a:	08 95       	ret

00002e7c <__divmodhi4_neg1>:
    2e7c:	f6 f7       	brtc	.-4      	; 0x2e7a <__divmodhi4_exit>
    2e7e:	90 95       	com	r25
    2e80:	81 95       	neg	r24
    2e82:	9f 4f       	sbci	r25, 0xFF	; 255
    2e84:	08 95       	ret

00002e86 <__udivmodhi4>:
    2e86:	aa 1b       	sub	r26, r26
    2e88:	bb 1b       	sub	r27, r27
    2e8a:	51 e1       	ldi	r21, 0x11	; 17
    2e8c:	07 c0       	rjmp	.+14     	; 0x2e9c <__udivmodhi4_ep>

00002e8e <__udivmodhi4_loop>:
    2e8e:	aa 1f       	adc	r26, r26
    2e90:	bb 1f       	adc	r27, r27
    2e92:	a6 17       	cp	r26, r22
    2e94:	b7 07       	cpc	r27, r23
    2e96:	10 f0       	brcs	.+4      	; 0x2e9c <__udivmodhi4_ep>
    2e98:	a6 1b       	sub	r26, r22
    2e9a:	b7 0b       	sbc	r27, r23

00002e9c <__udivmodhi4_ep>:
    2e9c:	88 1f       	adc	r24, r24
    2e9e:	99 1f       	adc	r25, r25
    2ea0:	5a 95       	dec	r21
    2ea2:	a9 f7       	brne	.-22     	; 0x2e8e <__udivmodhi4_loop>
    2ea4:	80 95       	com	r24
    2ea6:	90 95       	com	r25
    2ea8:	bc 01       	movw	r22, r24
    2eaa:	cd 01       	movw	r24, r26
    2eac:	08 95       	ret

00002eae <sprintf>:
    2eae:	ae e0       	ldi	r26, 0x0E	; 14
    2eb0:	b0 e0       	ldi	r27, 0x00	; 0
    2eb2:	ed e5       	ldi	r30, 0x5D	; 93
    2eb4:	f7 e1       	ldi	r31, 0x17	; 23
    2eb6:	0c 94 4c 1a 	jmp	0x3498	; 0x3498 <__prologue_saves__+0x1c>
    2eba:	0d 89       	ldd	r16, Y+21	; 0x15
    2ebc:	1e 89       	ldd	r17, Y+22	; 0x16
    2ebe:	86 e0       	ldi	r24, 0x06	; 6
    2ec0:	8c 83       	std	Y+4, r24	; 0x04
    2ec2:	1a 83       	std	Y+2, r17	; 0x02
    2ec4:	09 83       	std	Y+1, r16	; 0x01
    2ec6:	8f ef       	ldi	r24, 0xFF	; 255
    2ec8:	9f e7       	ldi	r25, 0x7F	; 127
    2eca:	9e 83       	std	Y+6, r25	; 0x06
    2ecc:	8d 83       	std	Y+5, r24	; 0x05
    2ece:	ae 01       	movw	r20, r28
    2ed0:	47 5e       	subi	r20, 0xE7	; 231
    2ed2:	5f 4f       	sbci	r21, 0xFF	; 255
    2ed4:	ce 01       	movw	r24, r28
    2ed6:	01 96       	adiw	r24, 0x01	; 1
    2ed8:	6f 89       	ldd	r22, Y+23	; 0x17
    2eda:	78 8d       	ldd	r23, Y+24	; 0x18
    2edc:	0e 94 79 17 	call	0x2ef2	; 0x2ef2 <vfprintf>
    2ee0:	ef 81       	ldd	r30, Y+7	; 0x07
    2ee2:	f8 85       	ldd	r31, Y+8	; 0x08
    2ee4:	e0 0f       	add	r30, r16
    2ee6:	f1 1f       	adc	r31, r17
    2ee8:	10 82       	st	Z, r1
    2eea:	2e 96       	adiw	r28, 0x0e	; 14
    2eec:	e4 e0       	ldi	r30, 0x04	; 4
    2eee:	0c 94 68 1a 	jmp	0x34d0	; 0x34d0 <__epilogue_restores__+0x1c>

00002ef2 <vfprintf>:
    2ef2:	ad e0       	ldi	r26, 0x0D	; 13
    2ef4:	b0 e0       	ldi	r27, 0x00	; 0
    2ef6:	ef e7       	ldi	r30, 0x7F	; 127
    2ef8:	f7 e1       	ldi	r31, 0x17	; 23
    2efa:	0c 94 3e 1a 	jmp	0x347c	; 0x347c <__prologue_saves__>
    2efe:	3c 01       	movw	r6, r24
    2f00:	7d 87       	std	Y+13, r23	; 0x0d
    2f02:	6c 87       	std	Y+12, r22	; 0x0c
    2f04:	5a 01       	movw	r10, r20
    2f06:	fc 01       	movw	r30, r24
    2f08:	17 82       	std	Z+7, r1	; 0x07
    2f0a:	16 82       	std	Z+6, r1	; 0x06
    2f0c:	83 81       	ldd	r24, Z+3	; 0x03
    2f0e:	81 ff       	sbrs	r24, 1
    2f10:	c8 c1       	rjmp	.+912    	; 0x32a2 <vfprintf+0x3b0>
    2f12:	2e 01       	movw	r4, r28
    2f14:	08 94       	sec
    2f16:	41 1c       	adc	r4, r1
    2f18:	51 1c       	adc	r5, r1
    2f1a:	f3 01       	movw	r30, r6
    2f1c:	93 81       	ldd	r25, Z+3	; 0x03
    2f1e:	ec 85       	ldd	r30, Y+12	; 0x0c
    2f20:	fd 85       	ldd	r31, Y+13	; 0x0d
    2f22:	93 fd       	sbrc	r25, 3
    2f24:	85 91       	lpm	r24, Z+
    2f26:	93 ff       	sbrs	r25, 3
    2f28:	81 91       	ld	r24, Z+
    2f2a:	fd 87       	std	Y+13, r31	; 0x0d
    2f2c:	ec 87       	std	Y+12, r30	; 0x0c
    2f2e:	88 23       	and	r24, r24
    2f30:	09 f4       	brne	.+2      	; 0x2f34 <vfprintf+0x42>
    2f32:	b3 c1       	rjmp	.+870    	; 0x329a <vfprintf+0x3a8>
    2f34:	85 32       	cpi	r24, 0x25	; 37
    2f36:	41 f4       	brne	.+16     	; 0x2f48 <vfprintf+0x56>
    2f38:	93 fd       	sbrc	r25, 3
    2f3a:	85 91       	lpm	r24, Z+
    2f3c:	93 ff       	sbrs	r25, 3
    2f3e:	81 91       	ld	r24, Z+
    2f40:	fd 87       	std	Y+13, r31	; 0x0d
    2f42:	ec 87       	std	Y+12, r30	; 0x0c
    2f44:	85 32       	cpi	r24, 0x25	; 37
    2f46:	29 f4       	brne	.+10     	; 0x2f52 <vfprintf+0x60>
    2f48:	90 e0       	ldi	r25, 0x00	; 0
    2f4a:	b3 01       	movw	r22, r6
    2f4c:	0e 94 a4 19 	call	0x3348	; 0x3348 <fputc>
    2f50:	e4 cf       	rjmp	.-56     	; 0x2f1a <vfprintf+0x28>
    2f52:	ff 24       	eor	r15, r15
    2f54:	ee 24       	eor	r14, r14
    2f56:	10 e0       	ldi	r17, 0x00	; 0
    2f58:	10 32       	cpi	r17, 0x20	; 32
    2f5a:	b0 f4       	brcc	.+44     	; 0x2f88 <vfprintf+0x96>
    2f5c:	8b 32       	cpi	r24, 0x2B	; 43
    2f5e:	69 f0       	breq	.+26     	; 0x2f7a <vfprintf+0x88>
    2f60:	8c 32       	cpi	r24, 0x2C	; 44
    2f62:	28 f4       	brcc	.+10     	; 0x2f6e <vfprintf+0x7c>
    2f64:	80 32       	cpi	r24, 0x20	; 32
    2f66:	51 f0       	breq	.+20     	; 0x2f7c <vfprintf+0x8a>
    2f68:	83 32       	cpi	r24, 0x23	; 35
    2f6a:	71 f4       	brne	.+28     	; 0x2f88 <vfprintf+0x96>
    2f6c:	0b c0       	rjmp	.+22     	; 0x2f84 <vfprintf+0x92>
    2f6e:	8d 32       	cpi	r24, 0x2D	; 45
    2f70:	39 f0       	breq	.+14     	; 0x2f80 <vfprintf+0x8e>
    2f72:	80 33       	cpi	r24, 0x30	; 48
    2f74:	49 f4       	brne	.+18     	; 0x2f88 <vfprintf+0x96>
    2f76:	11 60       	ori	r17, 0x01	; 1
    2f78:	2c c0       	rjmp	.+88     	; 0x2fd2 <vfprintf+0xe0>
    2f7a:	12 60       	ori	r17, 0x02	; 2
    2f7c:	14 60       	ori	r17, 0x04	; 4
    2f7e:	29 c0       	rjmp	.+82     	; 0x2fd2 <vfprintf+0xe0>
    2f80:	18 60       	ori	r17, 0x08	; 8
    2f82:	27 c0       	rjmp	.+78     	; 0x2fd2 <vfprintf+0xe0>
    2f84:	10 61       	ori	r17, 0x10	; 16
    2f86:	25 c0       	rjmp	.+74     	; 0x2fd2 <vfprintf+0xe0>
    2f88:	17 fd       	sbrc	r17, 7
    2f8a:	2e c0       	rjmp	.+92     	; 0x2fe8 <vfprintf+0xf6>
    2f8c:	28 2f       	mov	r18, r24
    2f8e:	20 53       	subi	r18, 0x30	; 48
    2f90:	2a 30       	cpi	r18, 0x0A	; 10
    2f92:	98 f4       	brcc	.+38     	; 0x2fba <vfprintf+0xc8>
    2f94:	16 ff       	sbrs	r17, 6
    2f96:	08 c0       	rjmp	.+16     	; 0x2fa8 <vfprintf+0xb6>
    2f98:	8f 2d       	mov	r24, r15
    2f9a:	88 0f       	add	r24, r24
    2f9c:	f8 2e       	mov	r15, r24
    2f9e:	ff 0c       	add	r15, r15
    2fa0:	ff 0c       	add	r15, r15
    2fa2:	f8 0e       	add	r15, r24
    2fa4:	f2 0e       	add	r15, r18
    2fa6:	15 c0       	rjmp	.+42     	; 0x2fd2 <vfprintf+0xe0>
    2fa8:	8e 2d       	mov	r24, r14
    2faa:	88 0f       	add	r24, r24
    2fac:	e8 2e       	mov	r14, r24
    2fae:	ee 0c       	add	r14, r14
    2fb0:	ee 0c       	add	r14, r14
    2fb2:	e8 0e       	add	r14, r24
    2fb4:	e2 0e       	add	r14, r18
    2fb6:	10 62       	ori	r17, 0x20	; 32
    2fb8:	0c c0       	rjmp	.+24     	; 0x2fd2 <vfprintf+0xe0>
    2fba:	8e 32       	cpi	r24, 0x2E	; 46
    2fbc:	21 f4       	brne	.+8      	; 0x2fc6 <vfprintf+0xd4>
    2fbe:	16 fd       	sbrc	r17, 6
    2fc0:	6c c1       	rjmp	.+728    	; 0x329a <vfprintf+0x3a8>
    2fc2:	10 64       	ori	r17, 0x40	; 64
    2fc4:	06 c0       	rjmp	.+12     	; 0x2fd2 <vfprintf+0xe0>
    2fc6:	8c 36       	cpi	r24, 0x6C	; 108
    2fc8:	11 f4       	brne	.+4      	; 0x2fce <vfprintf+0xdc>
    2fca:	10 68       	ori	r17, 0x80	; 128
    2fcc:	02 c0       	rjmp	.+4      	; 0x2fd2 <vfprintf+0xe0>
    2fce:	88 36       	cpi	r24, 0x68	; 104
    2fd0:	59 f4       	brne	.+22     	; 0x2fe8 <vfprintf+0xf6>
    2fd2:	ec 85       	ldd	r30, Y+12	; 0x0c
    2fd4:	fd 85       	ldd	r31, Y+13	; 0x0d
    2fd6:	93 fd       	sbrc	r25, 3
    2fd8:	85 91       	lpm	r24, Z+
    2fda:	93 ff       	sbrs	r25, 3
    2fdc:	81 91       	ld	r24, Z+
    2fde:	fd 87       	std	Y+13, r31	; 0x0d
    2fe0:	ec 87       	std	Y+12, r30	; 0x0c
    2fe2:	88 23       	and	r24, r24
    2fe4:	09 f0       	breq	.+2      	; 0x2fe8 <vfprintf+0xf6>
    2fe6:	b8 cf       	rjmp	.-144    	; 0x2f58 <vfprintf+0x66>
    2fe8:	98 2f       	mov	r25, r24
    2fea:	95 54       	subi	r25, 0x45	; 69
    2fec:	93 30       	cpi	r25, 0x03	; 3
    2fee:	18 f0       	brcs	.+6      	; 0x2ff6 <vfprintf+0x104>
    2ff0:	90 52       	subi	r25, 0x20	; 32
    2ff2:	93 30       	cpi	r25, 0x03	; 3
    2ff4:	38 f4       	brcc	.+14     	; 0x3004 <vfprintf+0x112>
    2ff6:	24 e0       	ldi	r18, 0x04	; 4
    2ff8:	30 e0       	ldi	r19, 0x00	; 0
    2ffa:	a2 0e       	add	r10, r18
    2ffc:	b3 1e       	adc	r11, r19
    2ffe:	3f e3       	ldi	r19, 0x3F	; 63
    3000:	39 83       	std	Y+1, r19	; 0x01
    3002:	0f c0       	rjmp	.+30     	; 0x3022 <vfprintf+0x130>
    3004:	83 36       	cpi	r24, 0x63	; 99
    3006:	31 f0       	breq	.+12     	; 0x3014 <vfprintf+0x122>
    3008:	83 37       	cpi	r24, 0x73	; 115
    300a:	81 f0       	breq	.+32     	; 0x302c <vfprintf+0x13a>
    300c:	83 35       	cpi	r24, 0x53	; 83
    300e:	09 f0       	breq	.+2      	; 0x3012 <vfprintf+0x120>
    3010:	5a c0       	rjmp	.+180    	; 0x30c6 <vfprintf+0x1d4>
    3012:	22 c0       	rjmp	.+68     	; 0x3058 <vfprintf+0x166>
    3014:	f5 01       	movw	r30, r10
    3016:	80 81       	ld	r24, Z
    3018:	89 83       	std	Y+1, r24	; 0x01
    301a:	22 e0       	ldi	r18, 0x02	; 2
    301c:	30 e0       	ldi	r19, 0x00	; 0
    301e:	a2 0e       	add	r10, r18
    3020:	b3 1e       	adc	r11, r19
    3022:	21 e0       	ldi	r18, 0x01	; 1
    3024:	c2 2e       	mov	r12, r18
    3026:	d1 2c       	mov	r13, r1
    3028:	42 01       	movw	r8, r4
    302a:	14 c0       	rjmp	.+40     	; 0x3054 <vfprintf+0x162>
    302c:	92 e0       	ldi	r25, 0x02	; 2
    302e:	29 2e       	mov	r2, r25
    3030:	31 2c       	mov	r3, r1
    3032:	2a 0c       	add	r2, r10
    3034:	3b 1c       	adc	r3, r11
    3036:	f5 01       	movw	r30, r10
    3038:	80 80       	ld	r8, Z
    303a:	91 80       	ldd	r9, Z+1	; 0x01
    303c:	16 ff       	sbrs	r17, 6
    303e:	03 c0       	rjmp	.+6      	; 0x3046 <vfprintf+0x154>
    3040:	6f 2d       	mov	r22, r15
    3042:	70 e0       	ldi	r23, 0x00	; 0
    3044:	02 c0       	rjmp	.+4      	; 0x304a <vfprintf+0x158>
    3046:	6f ef       	ldi	r22, 0xFF	; 255
    3048:	7f ef       	ldi	r23, 0xFF	; 255
    304a:	c4 01       	movw	r24, r8
    304c:	0e 94 99 19 	call	0x3332	; 0x3332 <strnlen>
    3050:	6c 01       	movw	r12, r24
    3052:	51 01       	movw	r10, r2
    3054:	1f 77       	andi	r17, 0x7F	; 127
    3056:	15 c0       	rjmp	.+42     	; 0x3082 <vfprintf+0x190>
    3058:	82 e0       	ldi	r24, 0x02	; 2
    305a:	28 2e       	mov	r2, r24
    305c:	31 2c       	mov	r3, r1
    305e:	2a 0c       	add	r2, r10
    3060:	3b 1c       	adc	r3, r11
    3062:	f5 01       	movw	r30, r10
    3064:	80 80       	ld	r8, Z
    3066:	91 80       	ldd	r9, Z+1	; 0x01
    3068:	16 ff       	sbrs	r17, 6
    306a:	03 c0       	rjmp	.+6      	; 0x3072 <vfprintf+0x180>
    306c:	6f 2d       	mov	r22, r15
    306e:	70 e0       	ldi	r23, 0x00	; 0
    3070:	02 c0       	rjmp	.+4      	; 0x3076 <vfprintf+0x184>
    3072:	6f ef       	ldi	r22, 0xFF	; 255
    3074:	7f ef       	ldi	r23, 0xFF	; 255
    3076:	c4 01       	movw	r24, r8
    3078:	0e 94 8e 19 	call	0x331c	; 0x331c <strnlen_P>
    307c:	6c 01       	movw	r12, r24
    307e:	10 68       	ori	r17, 0x80	; 128
    3080:	51 01       	movw	r10, r2
    3082:	13 fd       	sbrc	r17, 3
    3084:	1c c0       	rjmp	.+56     	; 0x30be <vfprintf+0x1cc>
    3086:	06 c0       	rjmp	.+12     	; 0x3094 <vfprintf+0x1a2>
    3088:	80 e2       	ldi	r24, 0x20	; 32
    308a:	90 e0       	ldi	r25, 0x00	; 0
    308c:	b3 01       	movw	r22, r6
    308e:	0e 94 a4 19 	call	0x3348	; 0x3348 <fputc>
    3092:	ea 94       	dec	r14
    3094:	8e 2d       	mov	r24, r14
    3096:	90 e0       	ldi	r25, 0x00	; 0
    3098:	c8 16       	cp	r12, r24
    309a:	d9 06       	cpc	r13, r25
    309c:	a8 f3       	brcs	.-22     	; 0x3088 <vfprintf+0x196>
    309e:	0f c0       	rjmp	.+30     	; 0x30be <vfprintf+0x1cc>
    30a0:	f4 01       	movw	r30, r8
    30a2:	17 fd       	sbrc	r17, 7
    30a4:	85 91       	lpm	r24, Z+
    30a6:	17 ff       	sbrs	r17, 7
    30a8:	81 91       	ld	r24, Z+
    30aa:	4f 01       	movw	r8, r30
    30ac:	90 e0       	ldi	r25, 0x00	; 0
    30ae:	b3 01       	movw	r22, r6
    30b0:	0e 94 a4 19 	call	0x3348	; 0x3348 <fputc>
    30b4:	e1 10       	cpse	r14, r1
    30b6:	ea 94       	dec	r14
    30b8:	08 94       	sec
    30ba:	c1 08       	sbc	r12, r1
    30bc:	d1 08       	sbc	r13, r1
    30be:	c1 14       	cp	r12, r1
    30c0:	d1 04       	cpc	r13, r1
    30c2:	71 f7       	brne	.-36     	; 0x30a0 <vfprintf+0x1ae>
    30c4:	e7 c0       	rjmp	.+462    	; 0x3294 <vfprintf+0x3a2>
    30c6:	84 36       	cpi	r24, 0x64	; 100
    30c8:	11 f0       	breq	.+4      	; 0x30ce <vfprintf+0x1dc>
    30ca:	89 36       	cpi	r24, 0x69	; 105
    30cc:	51 f5       	brne	.+84     	; 0x3122 <vfprintf+0x230>
    30ce:	f5 01       	movw	r30, r10
    30d0:	17 ff       	sbrs	r17, 7
    30d2:	07 c0       	rjmp	.+14     	; 0x30e2 <vfprintf+0x1f0>
    30d4:	80 81       	ld	r24, Z
    30d6:	91 81       	ldd	r25, Z+1	; 0x01
    30d8:	a2 81       	ldd	r26, Z+2	; 0x02
    30da:	b3 81       	ldd	r27, Z+3	; 0x03
    30dc:	24 e0       	ldi	r18, 0x04	; 4
    30de:	30 e0       	ldi	r19, 0x00	; 0
    30e0:	08 c0       	rjmp	.+16     	; 0x30f2 <vfprintf+0x200>
    30e2:	80 81       	ld	r24, Z
    30e4:	91 81       	ldd	r25, Z+1	; 0x01
    30e6:	aa 27       	eor	r26, r26
    30e8:	97 fd       	sbrc	r25, 7
    30ea:	a0 95       	com	r26
    30ec:	ba 2f       	mov	r27, r26
    30ee:	22 e0       	ldi	r18, 0x02	; 2
    30f0:	30 e0       	ldi	r19, 0x00	; 0
    30f2:	a2 0e       	add	r10, r18
    30f4:	b3 1e       	adc	r11, r19
    30f6:	01 2f       	mov	r16, r17
    30f8:	0f 76       	andi	r16, 0x6F	; 111
    30fa:	b7 ff       	sbrs	r27, 7
    30fc:	08 c0       	rjmp	.+16     	; 0x310e <vfprintf+0x21c>
    30fe:	b0 95       	com	r27
    3100:	a0 95       	com	r26
    3102:	90 95       	com	r25
    3104:	81 95       	neg	r24
    3106:	9f 4f       	sbci	r25, 0xFF	; 255
    3108:	af 4f       	sbci	r26, 0xFF	; 255
    310a:	bf 4f       	sbci	r27, 0xFF	; 255
    310c:	00 68       	ori	r16, 0x80	; 128
    310e:	bc 01       	movw	r22, r24
    3110:	cd 01       	movw	r24, r26
    3112:	a2 01       	movw	r20, r4
    3114:	2a e0       	ldi	r18, 0x0A	; 10
    3116:	30 e0       	ldi	r19, 0x00	; 0
    3118:	0e 94 d0 19 	call	0x33a0	; 0x33a0 <__ultoa_invert>
    311c:	d8 2e       	mov	r13, r24
    311e:	d4 18       	sub	r13, r4
    3120:	3f c0       	rjmp	.+126    	; 0x31a0 <vfprintf+0x2ae>
    3122:	85 37       	cpi	r24, 0x75	; 117
    3124:	21 f4       	brne	.+8      	; 0x312e <vfprintf+0x23c>
    3126:	1f 7e       	andi	r17, 0xEF	; 239
    3128:	2a e0       	ldi	r18, 0x0A	; 10
    312a:	30 e0       	ldi	r19, 0x00	; 0
    312c:	20 c0       	rjmp	.+64     	; 0x316e <vfprintf+0x27c>
    312e:	19 7f       	andi	r17, 0xF9	; 249
    3130:	8f 36       	cpi	r24, 0x6F	; 111
    3132:	a9 f0       	breq	.+42     	; 0x315e <vfprintf+0x26c>
    3134:	80 37       	cpi	r24, 0x70	; 112
    3136:	20 f4       	brcc	.+8      	; 0x3140 <vfprintf+0x24e>
    3138:	88 35       	cpi	r24, 0x58	; 88
    313a:	09 f0       	breq	.+2      	; 0x313e <vfprintf+0x24c>
    313c:	ae c0       	rjmp	.+348    	; 0x329a <vfprintf+0x3a8>
    313e:	0b c0       	rjmp	.+22     	; 0x3156 <vfprintf+0x264>
    3140:	80 37       	cpi	r24, 0x70	; 112
    3142:	21 f0       	breq	.+8      	; 0x314c <vfprintf+0x25a>
    3144:	88 37       	cpi	r24, 0x78	; 120
    3146:	09 f0       	breq	.+2      	; 0x314a <vfprintf+0x258>
    3148:	a8 c0       	rjmp	.+336    	; 0x329a <vfprintf+0x3a8>
    314a:	01 c0       	rjmp	.+2      	; 0x314e <vfprintf+0x25c>
    314c:	10 61       	ori	r17, 0x10	; 16
    314e:	14 ff       	sbrs	r17, 4
    3150:	09 c0       	rjmp	.+18     	; 0x3164 <vfprintf+0x272>
    3152:	14 60       	ori	r17, 0x04	; 4
    3154:	07 c0       	rjmp	.+14     	; 0x3164 <vfprintf+0x272>
    3156:	14 ff       	sbrs	r17, 4
    3158:	08 c0       	rjmp	.+16     	; 0x316a <vfprintf+0x278>
    315a:	16 60       	ori	r17, 0x06	; 6
    315c:	06 c0       	rjmp	.+12     	; 0x316a <vfprintf+0x278>
    315e:	28 e0       	ldi	r18, 0x08	; 8
    3160:	30 e0       	ldi	r19, 0x00	; 0
    3162:	05 c0       	rjmp	.+10     	; 0x316e <vfprintf+0x27c>
    3164:	20 e1       	ldi	r18, 0x10	; 16
    3166:	30 e0       	ldi	r19, 0x00	; 0
    3168:	02 c0       	rjmp	.+4      	; 0x316e <vfprintf+0x27c>
    316a:	20 e1       	ldi	r18, 0x10	; 16
    316c:	32 e0       	ldi	r19, 0x02	; 2
    316e:	f5 01       	movw	r30, r10
    3170:	17 ff       	sbrs	r17, 7
    3172:	07 c0       	rjmp	.+14     	; 0x3182 <vfprintf+0x290>
    3174:	60 81       	ld	r22, Z
    3176:	71 81       	ldd	r23, Z+1	; 0x01
    3178:	82 81       	ldd	r24, Z+2	; 0x02
    317a:	93 81       	ldd	r25, Z+3	; 0x03
    317c:	44 e0       	ldi	r20, 0x04	; 4
    317e:	50 e0       	ldi	r21, 0x00	; 0
    3180:	06 c0       	rjmp	.+12     	; 0x318e <vfprintf+0x29c>
    3182:	60 81       	ld	r22, Z
    3184:	71 81       	ldd	r23, Z+1	; 0x01
    3186:	80 e0       	ldi	r24, 0x00	; 0
    3188:	90 e0       	ldi	r25, 0x00	; 0
    318a:	42 e0       	ldi	r20, 0x02	; 2
    318c:	50 e0       	ldi	r21, 0x00	; 0
    318e:	a4 0e       	add	r10, r20
    3190:	b5 1e       	adc	r11, r21
    3192:	a2 01       	movw	r20, r4
    3194:	0e 94 d0 19 	call	0x33a0	; 0x33a0 <__ultoa_invert>
    3198:	d8 2e       	mov	r13, r24
    319a:	d4 18       	sub	r13, r4
    319c:	01 2f       	mov	r16, r17
    319e:	0f 77       	andi	r16, 0x7F	; 127
    31a0:	06 ff       	sbrs	r16, 6
    31a2:	09 c0       	rjmp	.+18     	; 0x31b6 <vfprintf+0x2c4>
    31a4:	0e 7f       	andi	r16, 0xFE	; 254
    31a6:	df 14       	cp	r13, r15
    31a8:	30 f4       	brcc	.+12     	; 0x31b6 <vfprintf+0x2c4>
    31aa:	04 ff       	sbrs	r16, 4
    31ac:	06 c0       	rjmp	.+12     	; 0x31ba <vfprintf+0x2c8>
    31ae:	02 fd       	sbrc	r16, 2
    31b0:	04 c0       	rjmp	.+8      	; 0x31ba <vfprintf+0x2c8>
    31b2:	0f 7e       	andi	r16, 0xEF	; 239
    31b4:	02 c0       	rjmp	.+4      	; 0x31ba <vfprintf+0x2c8>
    31b6:	1d 2d       	mov	r17, r13
    31b8:	01 c0       	rjmp	.+2      	; 0x31bc <vfprintf+0x2ca>
    31ba:	1f 2d       	mov	r17, r15
    31bc:	80 2f       	mov	r24, r16
    31be:	90 e0       	ldi	r25, 0x00	; 0
    31c0:	04 ff       	sbrs	r16, 4
    31c2:	0c c0       	rjmp	.+24     	; 0x31dc <vfprintf+0x2ea>
    31c4:	fe 01       	movw	r30, r28
    31c6:	ed 0d       	add	r30, r13
    31c8:	f1 1d       	adc	r31, r1
    31ca:	20 81       	ld	r18, Z
    31cc:	20 33       	cpi	r18, 0x30	; 48
    31ce:	11 f4       	brne	.+4      	; 0x31d4 <vfprintf+0x2e2>
    31d0:	09 7e       	andi	r16, 0xE9	; 233
    31d2:	09 c0       	rjmp	.+18     	; 0x31e6 <vfprintf+0x2f4>
    31d4:	02 ff       	sbrs	r16, 2
    31d6:	06 c0       	rjmp	.+12     	; 0x31e4 <vfprintf+0x2f2>
    31d8:	1e 5f       	subi	r17, 0xFE	; 254
    31da:	05 c0       	rjmp	.+10     	; 0x31e6 <vfprintf+0x2f4>
    31dc:	86 78       	andi	r24, 0x86	; 134
    31de:	90 70       	andi	r25, 0x00	; 0
    31e0:	00 97       	sbiw	r24, 0x00	; 0
    31e2:	09 f0       	breq	.+2      	; 0x31e6 <vfprintf+0x2f4>
    31e4:	1f 5f       	subi	r17, 0xFF	; 255
    31e6:	80 2e       	mov	r8, r16
    31e8:	99 24       	eor	r9, r9
    31ea:	03 fd       	sbrc	r16, 3
    31ec:	12 c0       	rjmp	.+36     	; 0x3212 <vfprintf+0x320>
    31ee:	00 ff       	sbrs	r16, 0
    31f0:	0d c0       	rjmp	.+26     	; 0x320c <vfprintf+0x31a>
    31f2:	fd 2c       	mov	r15, r13
    31f4:	1e 15       	cp	r17, r14
    31f6:	50 f4       	brcc	.+20     	; 0x320c <vfprintf+0x31a>
    31f8:	fe 0c       	add	r15, r14
    31fa:	f1 1a       	sub	r15, r17
    31fc:	1e 2d       	mov	r17, r14
    31fe:	06 c0       	rjmp	.+12     	; 0x320c <vfprintf+0x31a>
    3200:	80 e2       	ldi	r24, 0x20	; 32
    3202:	90 e0       	ldi	r25, 0x00	; 0
    3204:	b3 01       	movw	r22, r6
    3206:	0e 94 a4 19 	call	0x3348	; 0x3348 <fputc>
    320a:	1f 5f       	subi	r17, 0xFF	; 255
    320c:	1e 15       	cp	r17, r14
    320e:	c0 f3       	brcs	.-16     	; 0x3200 <vfprintf+0x30e>
    3210:	04 c0       	rjmp	.+8      	; 0x321a <vfprintf+0x328>
    3212:	1e 15       	cp	r17, r14
    3214:	10 f4       	brcc	.+4      	; 0x321a <vfprintf+0x328>
    3216:	e1 1a       	sub	r14, r17
    3218:	01 c0       	rjmp	.+2      	; 0x321c <vfprintf+0x32a>
    321a:	ee 24       	eor	r14, r14
    321c:	84 fe       	sbrs	r8, 4
    321e:	0f c0       	rjmp	.+30     	; 0x323e <vfprintf+0x34c>
    3220:	80 e3       	ldi	r24, 0x30	; 48
    3222:	90 e0       	ldi	r25, 0x00	; 0
    3224:	b3 01       	movw	r22, r6
    3226:	0e 94 a4 19 	call	0x3348	; 0x3348 <fputc>
    322a:	82 fe       	sbrs	r8, 2
    322c:	1f c0       	rjmp	.+62     	; 0x326c <vfprintf+0x37a>
    322e:	81 fe       	sbrs	r8, 1
    3230:	03 c0       	rjmp	.+6      	; 0x3238 <vfprintf+0x346>
    3232:	88 e5       	ldi	r24, 0x58	; 88
    3234:	90 e0       	ldi	r25, 0x00	; 0
    3236:	10 c0       	rjmp	.+32     	; 0x3258 <vfprintf+0x366>
    3238:	88 e7       	ldi	r24, 0x78	; 120
    323a:	90 e0       	ldi	r25, 0x00	; 0
    323c:	0d c0       	rjmp	.+26     	; 0x3258 <vfprintf+0x366>
    323e:	c4 01       	movw	r24, r8
    3240:	86 78       	andi	r24, 0x86	; 134
    3242:	90 70       	andi	r25, 0x00	; 0
    3244:	00 97       	sbiw	r24, 0x00	; 0
    3246:	91 f0       	breq	.+36     	; 0x326c <vfprintf+0x37a>
    3248:	81 fc       	sbrc	r8, 1
    324a:	02 c0       	rjmp	.+4      	; 0x3250 <vfprintf+0x35e>
    324c:	80 e2       	ldi	r24, 0x20	; 32
    324e:	01 c0       	rjmp	.+2      	; 0x3252 <vfprintf+0x360>
    3250:	8b e2       	ldi	r24, 0x2B	; 43
    3252:	07 fd       	sbrc	r16, 7
    3254:	8d e2       	ldi	r24, 0x2D	; 45
    3256:	90 e0       	ldi	r25, 0x00	; 0
    3258:	b3 01       	movw	r22, r6
    325a:	0e 94 a4 19 	call	0x3348	; 0x3348 <fputc>
    325e:	06 c0       	rjmp	.+12     	; 0x326c <vfprintf+0x37a>
    3260:	80 e3       	ldi	r24, 0x30	; 48
    3262:	90 e0       	ldi	r25, 0x00	; 0
    3264:	b3 01       	movw	r22, r6
    3266:	0e 94 a4 19 	call	0x3348	; 0x3348 <fputc>
    326a:	fa 94       	dec	r15
    326c:	df 14       	cp	r13, r15
    326e:	c0 f3       	brcs	.-16     	; 0x3260 <vfprintf+0x36e>
    3270:	da 94       	dec	r13
    3272:	f2 01       	movw	r30, r4
    3274:	ed 0d       	add	r30, r13
    3276:	f1 1d       	adc	r31, r1
    3278:	80 81       	ld	r24, Z
    327a:	90 e0       	ldi	r25, 0x00	; 0
    327c:	b3 01       	movw	r22, r6
    327e:	0e 94 a4 19 	call	0x3348	; 0x3348 <fputc>
    3282:	dd 20       	and	r13, r13
    3284:	a9 f7       	brne	.-22     	; 0x3270 <vfprintf+0x37e>
    3286:	06 c0       	rjmp	.+12     	; 0x3294 <vfprintf+0x3a2>
    3288:	80 e2       	ldi	r24, 0x20	; 32
    328a:	90 e0       	ldi	r25, 0x00	; 0
    328c:	b3 01       	movw	r22, r6
    328e:	0e 94 a4 19 	call	0x3348	; 0x3348 <fputc>
    3292:	ea 94       	dec	r14
    3294:	ee 20       	and	r14, r14
    3296:	c1 f7       	brne	.-16     	; 0x3288 <vfprintf+0x396>
    3298:	40 ce       	rjmp	.-896    	; 0x2f1a <vfprintf+0x28>
    329a:	f3 01       	movw	r30, r6
    329c:	86 81       	ldd	r24, Z+6	; 0x06
    329e:	97 81       	ldd	r25, Z+7	; 0x07
    32a0:	02 c0       	rjmp	.+4      	; 0x32a6 <vfprintf+0x3b4>
    32a2:	8f ef       	ldi	r24, 0xFF	; 255
    32a4:	9f ef       	ldi	r25, 0xFF	; 255
    32a6:	2d 96       	adiw	r28, 0x0d	; 13
    32a8:	e2 e1       	ldi	r30, 0x12	; 18
    32aa:	0c 94 5a 1a 	jmp	0x34b4	; 0x34b4 <__epilogue_restores__>

000032ae <__eerd_byte_m32a>:
    32ae:	e1 99       	sbic	0x1c, 1	; 28
    32b0:	fe cf       	rjmp	.-4      	; 0x32ae <__eerd_byte_m32a>
    32b2:	9f bb       	out	0x1f, r25	; 31
    32b4:	8e bb       	out	0x1e, r24	; 30
    32b6:	e0 9a       	sbi	0x1c, 0	; 28
    32b8:	99 27       	eor	r25, r25
    32ba:	8d b3       	in	r24, 0x1d	; 29
    32bc:	08 95       	ret

000032be <__eerd_dword_m32a>:
    32be:	a6 e1       	ldi	r26, 0x16	; 22
    32c0:	b0 e0       	ldi	r27, 0x00	; 0
    32c2:	44 e0       	ldi	r20, 0x04	; 4
    32c4:	50 e0       	ldi	r21, 0x00	; 0
    32c6:	0c 94 30 1a 	jmp	0x3460	; 0x3460 <__eerd_blraw_m32a>

000032ca <__eerd_word_m32a>:
    32ca:	a8 e1       	ldi	r26, 0x18	; 24
    32cc:	b0 e0       	ldi	r27, 0x00	; 0
    32ce:	42 e0       	ldi	r20, 0x02	; 2
    32d0:	50 e0       	ldi	r21, 0x00	; 0
    32d2:	0c 94 30 1a 	jmp	0x3460	; 0x3460 <__eerd_blraw_m32a>

000032d6 <__eeupd_byte_m32a>:
    32d6:	26 2f       	mov	r18, r22

000032d8 <__eeupd_r18_m32a>:
    32d8:	e1 99       	sbic	0x1c, 1	; 28
    32da:	fe cf       	rjmp	.-4      	; 0x32d8 <__eeupd_r18_m32a>
    32dc:	9f bb       	out	0x1f, r25	; 31
    32de:	8e bb       	out	0x1e, r24	; 30
    32e0:	e0 9a       	sbi	0x1c, 0	; 28
    32e2:	01 97       	sbiw	r24, 0x01	; 1
    32e4:	0d b2       	in	r0, 0x1d	; 29
    32e6:	02 16       	cp	r0, r18
    32e8:	31 f0       	breq	.+12     	; 0x32f6 <__eeupd_r18_m32a+0x1e>
    32ea:	2d bb       	out	0x1d, r18	; 29
    32ec:	0f b6       	in	r0, 0x3f	; 63
    32ee:	f8 94       	cli
    32f0:	e2 9a       	sbi	0x1c, 2	; 28
    32f2:	e1 9a       	sbi	0x1c, 1	; 28
    32f4:	0f be       	out	0x3f, r0	; 63
    32f6:	08 95       	ret

000032f8 <__eeupd_dword_m32a>:
    32f8:	03 96       	adiw	r24, 0x03	; 3
    32fa:	27 2f       	mov	r18, r23
    32fc:	0e 94 6c 19 	call	0x32d8	; 0x32d8 <__eeupd_r18_m32a>
    3300:	0e 94 6b 19 	call	0x32d6	; 0x32d6 <__eeupd_byte_m32a>
    3304:	25 2f       	mov	r18, r21
    3306:	0e 94 6c 19 	call	0x32d8	; 0x32d8 <__eeupd_r18_m32a>
    330a:	24 2f       	mov	r18, r20
    330c:	0c 94 6c 19 	jmp	0x32d8	; 0x32d8 <__eeupd_r18_m32a>

00003310 <__eeupd_word_m32a>:
    3310:	01 96       	adiw	r24, 0x01	; 1
    3312:	27 2f       	mov	r18, r23
    3314:	0e 94 6c 19 	call	0x32d8	; 0x32d8 <__eeupd_r18_m32a>
    3318:	0c 94 6b 19 	jmp	0x32d6	; 0x32d6 <__eeupd_byte_m32a>

0000331c <strnlen_P>:
    331c:	fc 01       	movw	r30, r24
    331e:	05 90       	lpm	r0, Z+
    3320:	61 50       	subi	r22, 0x01	; 1
    3322:	70 40       	sbci	r23, 0x00	; 0
    3324:	01 10       	cpse	r0, r1
    3326:	d8 f7       	brcc	.-10     	; 0x331e <strnlen_P+0x2>
    3328:	80 95       	com	r24
    332a:	90 95       	com	r25
    332c:	8e 0f       	add	r24, r30
    332e:	9f 1f       	adc	r25, r31
    3330:	08 95       	ret

00003332 <strnlen>:
    3332:	fc 01       	movw	r30, r24
    3334:	61 50       	subi	r22, 0x01	; 1
    3336:	70 40       	sbci	r23, 0x00	; 0
    3338:	01 90       	ld	r0, Z+
    333a:	01 10       	cpse	r0, r1
    333c:	d8 f7       	brcc	.-10     	; 0x3334 <strnlen+0x2>
    333e:	80 95       	com	r24
    3340:	90 95       	com	r25
    3342:	8e 0f       	add	r24, r30
    3344:	9f 1f       	adc	r25, r31
    3346:	08 95       	ret

00003348 <fputc>:
    3348:	0f 93       	push	r16
    334a:	1f 93       	push	r17
    334c:	cf 93       	push	r28
    334e:	df 93       	push	r29
    3350:	8c 01       	movw	r16, r24
    3352:	eb 01       	movw	r28, r22
    3354:	8b 81       	ldd	r24, Y+3	; 0x03
    3356:	81 ff       	sbrs	r24, 1
    3358:	1b c0       	rjmp	.+54     	; 0x3390 <fputc+0x48>
    335a:	82 ff       	sbrs	r24, 2
    335c:	0d c0       	rjmp	.+26     	; 0x3378 <fputc+0x30>
    335e:	2e 81       	ldd	r18, Y+6	; 0x06
    3360:	3f 81       	ldd	r19, Y+7	; 0x07
    3362:	8c 81       	ldd	r24, Y+4	; 0x04
    3364:	9d 81       	ldd	r25, Y+5	; 0x05
    3366:	28 17       	cp	r18, r24
    3368:	39 07       	cpc	r19, r25
    336a:	64 f4       	brge	.+24     	; 0x3384 <fputc+0x3c>
    336c:	e8 81       	ld	r30, Y
    336e:	f9 81       	ldd	r31, Y+1	; 0x01
    3370:	01 93       	st	Z+, r16
    3372:	f9 83       	std	Y+1, r31	; 0x01
    3374:	e8 83       	st	Y, r30
    3376:	06 c0       	rjmp	.+12     	; 0x3384 <fputc+0x3c>
    3378:	e8 85       	ldd	r30, Y+8	; 0x08
    337a:	f9 85       	ldd	r31, Y+9	; 0x09
    337c:	80 2f       	mov	r24, r16
    337e:	09 95       	icall
    3380:	00 97       	sbiw	r24, 0x00	; 0
    3382:	31 f4       	brne	.+12     	; 0x3390 <fputc+0x48>
    3384:	8e 81       	ldd	r24, Y+6	; 0x06
    3386:	9f 81       	ldd	r25, Y+7	; 0x07
    3388:	01 96       	adiw	r24, 0x01	; 1
    338a:	9f 83       	std	Y+7, r25	; 0x07
    338c:	8e 83       	std	Y+6, r24	; 0x06
    338e:	02 c0       	rjmp	.+4      	; 0x3394 <fputc+0x4c>
    3390:	0f ef       	ldi	r16, 0xFF	; 255
    3392:	1f ef       	ldi	r17, 0xFF	; 255
    3394:	c8 01       	movw	r24, r16
    3396:	df 91       	pop	r29
    3398:	cf 91       	pop	r28
    339a:	1f 91       	pop	r17
    339c:	0f 91       	pop	r16
    339e:	08 95       	ret

000033a0 <__ultoa_invert>:
    33a0:	fa 01       	movw	r30, r20
    33a2:	aa 27       	eor	r26, r26
    33a4:	28 30       	cpi	r18, 0x08	; 8
    33a6:	51 f1       	breq	.+84     	; 0x33fc <__ultoa_invert+0x5c>
    33a8:	20 31       	cpi	r18, 0x10	; 16
    33aa:	81 f1       	breq	.+96     	; 0x340c <__ultoa_invert+0x6c>
    33ac:	e8 94       	clt
    33ae:	6f 93       	push	r22
    33b0:	6e 7f       	andi	r22, 0xFE	; 254
    33b2:	6e 5f       	subi	r22, 0xFE	; 254
    33b4:	7f 4f       	sbci	r23, 0xFF	; 255
    33b6:	8f 4f       	sbci	r24, 0xFF	; 255
    33b8:	9f 4f       	sbci	r25, 0xFF	; 255
    33ba:	af 4f       	sbci	r26, 0xFF	; 255
    33bc:	b1 e0       	ldi	r27, 0x01	; 1
    33be:	3e d0       	rcall	.+124    	; 0x343c <__ultoa_invert+0x9c>
    33c0:	b4 e0       	ldi	r27, 0x04	; 4
    33c2:	3c d0       	rcall	.+120    	; 0x343c <__ultoa_invert+0x9c>
    33c4:	67 0f       	add	r22, r23
    33c6:	78 1f       	adc	r23, r24
    33c8:	89 1f       	adc	r24, r25
    33ca:	9a 1f       	adc	r25, r26
    33cc:	a1 1d       	adc	r26, r1
    33ce:	68 0f       	add	r22, r24
    33d0:	79 1f       	adc	r23, r25
    33d2:	8a 1f       	adc	r24, r26
    33d4:	91 1d       	adc	r25, r1
    33d6:	a1 1d       	adc	r26, r1
    33d8:	6a 0f       	add	r22, r26
    33da:	71 1d       	adc	r23, r1
    33dc:	81 1d       	adc	r24, r1
    33de:	91 1d       	adc	r25, r1
    33e0:	a1 1d       	adc	r26, r1
    33e2:	20 d0       	rcall	.+64     	; 0x3424 <__ultoa_invert+0x84>
    33e4:	09 f4       	brne	.+2      	; 0x33e8 <__ultoa_invert+0x48>
    33e6:	68 94       	set
    33e8:	3f 91       	pop	r19
    33ea:	2a e0       	ldi	r18, 0x0A	; 10
    33ec:	26 9f       	mul	r18, r22
    33ee:	11 24       	eor	r1, r1
    33f0:	30 19       	sub	r19, r0
    33f2:	30 5d       	subi	r19, 0xD0	; 208
    33f4:	31 93       	st	Z+, r19
    33f6:	de f6       	brtc	.-74     	; 0x33ae <__ultoa_invert+0xe>
    33f8:	cf 01       	movw	r24, r30
    33fa:	08 95       	ret
    33fc:	46 2f       	mov	r20, r22
    33fe:	47 70       	andi	r20, 0x07	; 7
    3400:	40 5d       	subi	r20, 0xD0	; 208
    3402:	41 93       	st	Z+, r20
    3404:	b3 e0       	ldi	r27, 0x03	; 3
    3406:	0f d0       	rcall	.+30     	; 0x3426 <__ultoa_invert+0x86>
    3408:	c9 f7       	brne	.-14     	; 0x33fc <__ultoa_invert+0x5c>
    340a:	f6 cf       	rjmp	.-20     	; 0x33f8 <__ultoa_invert+0x58>
    340c:	46 2f       	mov	r20, r22
    340e:	4f 70       	andi	r20, 0x0F	; 15
    3410:	40 5d       	subi	r20, 0xD0	; 208
    3412:	4a 33       	cpi	r20, 0x3A	; 58
    3414:	18 f0       	brcs	.+6      	; 0x341c <__ultoa_invert+0x7c>
    3416:	49 5d       	subi	r20, 0xD9	; 217
    3418:	31 fd       	sbrc	r19, 1
    341a:	40 52       	subi	r20, 0x20	; 32
    341c:	41 93       	st	Z+, r20
    341e:	02 d0       	rcall	.+4      	; 0x3424 <__ultoa_invert+0x84>
    3420:	a9 f7       	brne	.-22     	; 0x340c <__ultoa_invert+0x6c>
    3422:	ea cf       	rjmp	.-44     	; 0x33f8 <__ultoa_invert+0x58>
    3424:	b4 e0       	ldi	r27, 0x04	; 4
    3426:	a6 95       	lsr	r26
    3428:	97 95       	ror	r25
    342a:	87 95       	ror	r24
    342c:	77 95       	ror	r23
    342e:	67 95       	ror	r22
    3430:	ba 95       	dec	r27
    3432:	c9 f7       	brne	.-14     	; 0x3426 <__ultoa_invert+0x86>
    3434:	00 97       	sbiw	r24, 0x00	; 0
    3436:	61 05       	cpc	r22, r1
    3438:	71 05       	cpc	r23, r1
    343a:	08 95       	ret
    343c:	9b 01       	movw	r18, r22
    343e:	ac 01       	movw	r20, r24
    3440:	0a 2e       	mov	r0, r26
    3442:	06 94       	lsr	r0
    3444:	57 95       	ror	r21
    3446:	47 95       	ror	r20
    3448:	37 95       	ror	r19
    344a:	27 95       	ror	r18
    344c:	ba 95       	dec	r27
    344e:	c9 f7       	brne	.-14     	; 0x3442 <__ultoa_invert+0xa2>
    3450:	62 0f       	add	r22, r18
    3452:	73 1f       	adc	r23, r19
    3454:	84 1f       	adc	r24, r20
    3456:	95 1f       	adc	r25, r21
    3458:	a0 1d       	adc	r26, r0
    345a:	08 95       	ret

0000345c <__eerd_block_m32a>:
    345c:	dc 01       	movw	r26, r24
    345e:	cb 01       	movw	r24, r22

00003460 <__eerd_blraw_m32a>:
    3460:	fc 01       	movw	r30, r24
    3462:	e1 99       	sbic	0x1c, 1	; 28
    3464:	fe cf       	rjmp	.-4      	; 0x3462 <__eerd_blraw_m32a+0x2>
    3466:	06 c0       	rjmp	.+12     	; 0x3474 <__eerd_blraw_m32a+0x14>
    3468:	ff bb       	out	0x1f, r31	; 31
    346a:	ee bb       	out	0x1e, r30	; 30
    346c:	e0 9a       	sbi	0x1c, 0	; 28
    346e:	31 96       	adiw	r30, 0x01	; 1
    3470:	0d b2       	in	r0, 0x1d	; 29
    3472:	0d 92       	st	X+, r0
    3474:	41 50       	subi	r20, 0x01	; 1
    3476:	50 40       	sbci	r21, 0x00	; 0
    3478:	b8 f7       	brcc	.-18     	; 0x3468 <__eerd_blraw_m32a+0x8>
    347a:	08 95       	ret

0000347c <__prologue_saves__>:
    347c:	2f 92       	push	r2
    347e:	3f 92       	push	r3
    3480:	4f 92       	push	r4
    3482:	5f 92       	push	r5
    3484:	6f 92       	push	r6
    3486:	7f 92       	push	r7
    3488:	8f 92       	push	r8
    348a:	9f 92       	push	r9
    348c:	af 92       	push	r10
    348e:	bf 92       	push	r11
    3490:	cf 92       	push	r12
    3492:	df 92       	push	r13
    3494:	ef 92       	push	r14
    3496:	ff 92       	push	r15
    3498:	0f 93       	push	r16
    349a:	1f 93       	push	r17
    349c:	cf 93       	push	r28
    349e:	df 93       	push	r29
    34a0:	cd b7       	in	r28, 0x3d	; 61
    34a2:	de b7       	in	r29, 0x3e	; 62
    34a4:	ca 1b       	sub	r28, r26
    34a6:	db 0b       	sbc	r29, r27
    34a8:	0f b6       	in	r0, 0x3f	; 63
    34aa:	f8 94       	cli
    34ac:	de bf       	out	0x3e, r29	; 62
    34ae:	0f be       	out	0x3f, r0	; 63
    34b0:	cd bf       	out	0x3d, r28	; 61
    34b2:	09 94       	ijmp

000034b4 <__epilogue_restores__>:
    34b4:	2a 88       	ldd	r2, Y+18	; 0x12
    34b6:	39 88       	ldd	r3, Y+17	; 0x11
    34b8:	48 88       	ldd	r4, Y+16	; 0x10
    34ba:	5f 84       	ldd	r5, Y+15	; 0x0f
    34bc:	6e 84       	ldd	r6, Y+14	; 0x0e
    34be:	7d 84       	ldd	r7, Y+13	; 0x0d
    34c0:	8c 84       	ldd	r8, Y+12	; 0x0c
    34c2:	9b 84       	ldd	r9, Y+11	; 0x0b
    34c4:	aa 84       	ldd	r10, Y+10	; 0x0a
    34c6:	b9 84       	ldd	r11, Y+9	; 0x09
    34c8:	c8 84       	ldd	r12, Y+8	; 0x08
    34ca:	df 80       	ldd	r13, Y+7	; 0x07
    34cc:	ee 80       	ldd	r14, Y+6	; 0x06
    34ce:	fd 80       	ldd	r15, Y+5	; 0x05
    34d0:	0c 81       	ldd	r16, Y+4	; 0x04
    34d2:	1b 81       	ldd	r17, Y+3	; 0x03
    34d4:	aa 81       	ldd	r26, Y+2	; 0x02
    34d6:	b9 81       	ldd	r27, Y+1	; 0x01
    34d8:	ce 0f       	add	r28, r30
    34da:	d1 1d       	adc	r29, r1
    34dc:	0f b6       	in	r0, 0x3f	; 63
    34de:	f8 94       	cli
    34e0:	de bf       	out	0x3e, r29	; 62
    34e2:	0f be       	out	0x3f, r0	; 63
    34e4:	cd bf       	out	0x3d, r28	; 61
    34e6:	ed 01       	movw	r28, r26
    34e8:	08 95       	ret

000034ea <_exit>:
    34ea:	f8 94       	cli

000034ec <__stop_program>:
    34ec:	ff cf       	rjmp	.-2      	; 0x34ec <__stop_program>
